	.file	"friedman.c"
	.local	__pyx_m
	.comm	__pyx_m,8,8
	.local	__pyx_d
	.comm	__pyx_d,8,8
	.local	__pyx_b
	.comm	__pyx_b,8,8
	.local	__pyx_empty_tuple
	.comm	__pyx_empty_tuple,8,8
	.local	__pyx_empty_bytes
	.comm	__pyx_empty_bytes,8,8
	.local	__pyx_lineno
	.comm	__pyx_lineno,4,4
	.local	__pyx_clineno
	.comm	__pyx_clineno,4,4
	.section	.rodata
.LC0:
	.string	"friedman.c"
	.data
	.align 8
	.type	__pyx_cfilenm, @object
	.size	__pyx_cfilenm, 8
__pyx_cfilenm:
	.quad	.LC0
	.local	__pyx_filename
	.comm	__pyx_filename,8,8
	.section	.rodata
.LC1:
	.string	"friedman.py"
	.data
	.align 8
	.type	__pyx_f, @object
	.size	__pyx_f, 8
__pyx_f:
	.quad	.LC1
	.text
	.type	__Pyx_PyObject_GetAttrStr, @function
__Pyx_PyObject_GetAttrStr:
.LFB1:
	.cfi_startproc
	pushq	%rbp
	.cfi_def_cfa_offset 16
	.cfi_offset 6, -16
	movq	%rsp, %rbp
	.cfi_def_cfa_register 6
	subq	$32, %rsp
	movq	%rdi, -24(%rbp)
	movq	%rsi, -32(%rbp)
	movq	-24(%rbp), %rax
	movq	8(%rax), %rax
	movq	%rax, -8(%rbp)
	movq	-8(%rbp), %rax
	movq	144(%rax), %rax
	testq	%rax, %rax
	setne	%al
	movzbl	%al, %eax
	testq	%rax, %rax
	je	.L2
	movq	-8(%rbp), %rax
	movq	144(%rax), %rcx
	movq	-32(%rbp), %rdx
	movq	-24(%rbp), %rax
	movq	%rdx, %rsi
	movq	%rax, %rdi
	call	*%rcx
	jmp	.L3
.L2:
	movq	-8(%rbp), %rax
	movq	64(%rax), %rax
	testq	%rax, %rax
	setne	%al
	movzbl	%al, %eax
	testq	%rax, %rax
	je	.L4
	movq	-8(%rbp), %rax
	movq	64(%rax), %rdx
	movq	-32(%rbp), %rax
	leaq	36(%rax), %rcx
	movq	-24(%rbp), %rax
	movq	%rcx, %rsi
	movq	%rax, %rdi
	call	*%rdx
	jmp	.L3
.L4:
	movq	-32(%rbp), %rdx
	movq	-24(%rbp), %rax
	movq	%rdx, %rsi
	movq	%rax, %rdi
	call	PyObject_GetAttr
.L3:
	leave
	.cfi_def_cfa 7, 8
	ret
	.cfi_endproc
.LFE1:
	.size	__Pyx_PyObject_GetAttrStr, .-__Pyx_PyObject_GetAttrStr
	.type	__Pyx_PyObject_SetAttrStr, @function
__Pyx_PyObject_SetAttrStr:
.LFB2:
	.cfi_startproc
	pushq	%rbp
	.cfi_def_cfa_offset 16
	.cfi_offset 6, -16
	movq	%rsp, %rbp
	.cfi_def_cfa_register 6
	pushq	%rbx
	subq	$56, %rsp
	movq	%rdi, -40(%rbp)
	movq	%rsi, -48(%rbp)
	movq	%rdx, -56(%rbp)
	movq	-40(%rbp), %rax
	movq	8(%rax), %rax
	movq	%rax, -24(%rbp)
	movq	-24(%rbp), %rax
	movq	152(%rax), %rax
	testq	%rax, %rax
	setne	%al
	movzbl	%al, %eax
	testq	%rax, %rax
	je	.L7
	.cfi_offset 3, -24
	movq	-24(%rbp), %rax
	movq	152(%rax), %rbx
	movq	-56(%rbp), %rdx
	movq	-48(%rbp), %rcx
	movq	-40(%rbp), %rax
	movq	%rcx, %rsi
	movq	%rax, %rdi
	call	*%rbx
	jmp	.L8
.L7:
	movq	-24(%rbp), %rax
	movq	72(%rax), %rax
	testq	%rax, %rax
	setne	%al
	movzbl	%al, %eax
	testq	%rax, %rax
	je	.L9
	movq	-24(%rbp), %rax
	movq	72(%rax), %rcx
	movq	-48(%rbp), %rax
	leaq	36(%rax), %rbx
	movq	-56(%rbp), %rdx
	movq	-40(%rbp), %rax
	movq	%rbx, %rsi
	movq	%rax, %rdi
	call	*%rcx
	jmp	.L8
.L9:
	movq	-56(%rbp), %rdx
	movq	-48(%rbp), %rcx
	movq	-40(%rbp), %rax
	movq	%rcx, %rsi
	movq	%rax, %rdi
	call	PyObject_SetAttr
.L8:
	addq	$56, %rsp
	popq	%rbx
	leave
	.cfi_def_cfa 7, 8
	ret
	.cfi_endproc
.LFE2:
	.size	__Pyx_PyObject_SetAttrStr, .-__Pyx_PyObject_SetAttrStr
	.type	__Pyx_PyList_Append, @function
__Pyx_PyList_Append:
.LFB3:
	.cfi_startproc
	pushq	%rbp
	.cfi_def_cfa_offset 16
	.cfi_offset 6, -16
	movq	%rsp, %rbp
	.cfi_def_cfa_register 6
	subq	$32, %rsp
	movq	%rdi, -24(%rbp)
	movq	%rsi, -32(%rbp)
	movq	-24(%rbp), %rax
	movq	%rax, -16(%rbp)
	movq	-24(%rbp), %rax
	movq	16(%rax), %rax
	movq	%rax, -8(%rbp)
	movq	-16(%rbp), %rax
	movq	32(%rax), %rax
	cmpq	-8(%rbp), %rax
	setg	%al
	movzbl	%al, %eax
	movq	%rax, %rdx
	movq	-16(%rbp), %rax
	movq	32(%rax), %rax
	sarq	%rax
	cmpq	-8(%rbp), %rax
	setl	%al
	movzbl	%al, %eax
	andq	%rdx, %rax
	testq	%rax, %rax
	je	.L12
	movq	-32(%rbp), %rax
	movq	(%rax), %rax
	leaq	1(%rax), %rdx
	movq	-32(%rbp), %rax
	movq	%rdx, (%rax)
	movq	-24(%rbp), %rax
	movq	24(%rax), %rax
	movq	-8(%rbp), %rdx
	salq	$3, %rdx
	leaq	(%rax,%rdx), %rdx
	movq	-32(%rbp), %rax
	movq	%rax, (%rdx)
	movq	-24(%rbp), %rax
	movq	-8(%rbp), %rdx
	addq	$1, %rdx
	movq	%rdx, 16(%rax)
	movl	$0, %eax
	jmp	.L13
.L12:
	movq	-32(%rbp), %rdx
	movq	-24(%rbp), %rax
	movq	%rdx, %rsi
	movq	%rax, %rdi
	call	PyList_Append
.L13:
	leave
	.cfi_def_cfa 7, 8
	ret
	.cfi_endproc
.LFE3:
	.size	__Pyx_PyList_Append, .-__Pyx_PyList_Append
	.type	__Pyx_PySequence_Contains, @function
__Pyx_PySequence_Contains:
.LFB4:
	.cfi_startproc
	pushq	%rbp
	.cfi_def_cfa_offset 16
	.cfi_offset 6, -16
	movq	%rsp, %rbp
	.cfi_def_cfa_register 6
	subq	$48, %rsp
	movq	%rdi, -24(%rbp)
	movq	%rsi, -32(%rbp)
	movl	%edx, -36(%rbp)
	movq	-24(%rbp), %rdx
	movq	-32(%rbp), %rax
	movq	%rdx, %rsi
	movq	%rax, %rdi
	call	PySequence_Contains
	movl	%eax, -4(%rbp)
	movl	-4(%rbp), %eax
	cltq
	shrq	$63, %rax
	testq	%rax, %rax
	jne	.L16
	cmpl	$2, -36(%rbp)
	sete	%al
	movzbl	%al, %eax
	cmpl	-4(%rbp), %eax
	sete	%al
	movzbl	%al, %eax
	jmp	.L17
.L16:
	movl	-4(%rbp), %eax
.L17:
	leave
	.cfi_def_cfa 7, 8
	ret
	.cfi_endproc
.LFE4:
	.size	__Pyx_PySequence_Contains, .-__Pyx_PySequence_Contains
	.local	__pyx_CyFunctionType
	.comm	__pyx_CyFunctionType,8,8
	.local	__pyx_code_cache
	.comm	__pyx_code_cache,16,16
.globl __pyx_module_is_main_friedman
	.bss
	.align 4
	.type	__pyx_module_is_main_friedman, @object
	.size	__pyx_module_is_main_friedman, 4
__pyx_module_is_main_friedman:
	.zero	4
	.local	__pyx_builtin_range
	.comm	__pyx_builtin_range,8,8
	.local	__pyx_builtin_max
	.comm	__pyx_builtin_max,8,8
	.data
	.type	__pyx_k_, @object
	.size	__pyx_k_, 2
__pyx_k_:
	.string	"/"
	.type	__pyx_k_a, @object
	.size	__pyx_k_a, 2
__pyx_k_a:
	.string	"a"
	.type	__pyx_k_b, @object
	.size	__pyx_k_b, 2
__pyx_k_b:
	.string	"b"
	.type	__pyx_k_i, @object
	.size	__pyx_k_i, 2
__pyx_k_i:
	.string	"i"
	.type	__pyx_k_k, @object
	.size	__pyx_k_k, 2
__pyx_k_k:
	.string	"k"
	.type	__pyx_k_n, @object
	.size	__pyx_k_n, 2
__pyx_k_n:
	.string	"n"
	.type	__pyx_k_r, @object
	.size	__pyx_k_r, 2
__pyx_k_r:
	.string	"r"
	.type	__pyx_k_t, @object
	.size	__pyx_k_t, 2
__pyx_k_t:
	.string	"t"
	.type	__pyx_k_x, @object
	.size	__pyx_k_x, 2
__pyx_k_x:
	.string	"x"
	.type	__pyx_k_y, @object
	.size	__pyx_k_y, 2
__pyx_k_y:
	.string	"y"
	.type	__pyx_k_cmp, @object
	.size	__pyx_k_cmp, 8
__pyx_k_cmp:
	.string	"__cmp__"
	.type	__pyx_k_doc, @object
	.size	__pyx_k_doc, 8
__pyx_k_doc:
	.string	"__doc__"
	.type	__pyx_k_fac, @object
	.size	__pyx_k_fac, 4
__pyx_k_fac:
	.string	"fac"
	.type	__pyx_k_max, @object
	.size	__pyx_k_max, 4
__pyx_k_max:
	.string	"max"
	.type	__pyx_k_set, @object
	.size	__pyx_k_set, 4
__pyx_k_set:
	.string	"set"
	.type	__pyx_k_str, @object
	.size	__pyx_k_str, 8
__pyx_k_str:
	.string	"__str__"
	.type	__pyx_k_ush, @object
	.size	__pyx_k_ush, 4
__pyx_k_ush:
	.string	"ush"
	.type	__pyx_k_init, @object
	.size	__pyx_k_init, 9
__pyx_k_init:
	.string	"__init__"
	.type	__pyx_k_main, @object
	.size	__pyx_k_main, 9
__pyx_k_main:
	.string	"__main__"
	.type	__pyx_k_repr, @object
	.size	__pyx_k_repr, 9
__pyx_k_repr:
	.string	"__repr__"
	.type	__pyx_k_self, @object
	.size	__pyx_k_self, 5
__pyx_k_self:
	.string	"self"
	.type	__pyx_k_set1, @object
	.size	__pyx_k_set1, 5
__pyx_k_set1:
	.string	"set1"
	.type	__pyx_k_set2, @object
	.size	__pyx_k_set2, 5
__pyx_k_set2:
	.string	"set2"
	.type	__pyx_k_sort, @object
	.size	__pyx_k_sort, 5
__pyx_k_sort:
	.string	"sort"
	.type	__pyx_k_test, @object
	.size	__pyx_k_test, 9
__pyx_k_test:
	.string	"__test__"
	.type	__pyx_k_kSet1, @object
	.size	__pyx_k_kSet1, 6
__pyx_k_kSet1:
	.string	"kSet1"
	.type	__pyx_k_kSet2, @object
	.size	__pyx_k_kSet2, 6
__pyx_k_kSet2:
	.string	"kSet2"
	.type	__pyx_k_ksets, @object
	.size	__pyx_k_ksets, 6
__pyx_k_ksets:
	.string	"ksets"
	.type	__pyx_k_other, @object
	.size	__pyx_k_other, 6
__pyx_k_other:
	.string	"other"
	.type	__pyx_k_range, @object
	.size	__pyx_k_range, 6
__pyx_k_range:
	.string	"range"
	.type	__pyx_k_rsets, @object
	.size	__pyx_k_rsets, 6
__pyx_k_rsets:
	.string	"rsets"
	.type	__pyx_k_union, @object
	.size	__pyx_k_union, 6
__pyx_k_union:
	.string	"union"
	.type	__pyx_k_import, @object
	.size	__pyx_k_import, 11
__pyx_k_import:
	.string	"__import__"
	.type	__pyx_k_module, @object
	.size	__pyx_k_module, 11
__pyx_k_module:
	.string	"__module__"
	.type	__pyx_k_newSet, @object
	.size	__pyx_k_newSet, 7
__pyx_k_newSet:
	.string	"newSet"
	.type	__pyx_k_result, @object
	.size	__pyx_k_result, 7
__pyx_k_result:
	.string	"result"
	.type	__pyx_k_element, @object
	.size	__pyx_k_element, 8
__pyx_k_element:
	.string	"element"
	.type	__pyx_k_oneLess, @object
	.size	__pyx_k_oneLess, 8
__pyx_k_oneLess:
	.string	"oneLess"
	.type	__pyx_k_prepare, @object
	.size	__pyx_k_prepare, 12
__pyx_k_prepare:
	.string	"__prepare__"
	.type	__pyx_k_reducee, @object
	.size	__pyx_k_reducee, 8
__pyx_k_reducee:
	.string	"reducee"
	.type	__pyx_k_reducer, @object
	.size	__pyx_k_reducer, 8
__pyx_k_reducer:
	.string	"reducer"
	.type	__pyx_k_reduces, @object
	.size	__pyx_k_reduces, 8
__pyx_k_reduces:
	.string	"reduces"
	.type	__pyx_k_setSize, @object
	.size	__pyx_k_setSize, 8
__pyx_k_setSize:
	.string	"setSize"
	.type	__pyx_k_subList, @object
	.size	__pyx_k_subList, 8
__pyx_k_subList:
	.string	"subList"
	.type	__pyx_k_ushList, @object
	.size	__pyx_k_ushList, 8
__pyx_k_ushList:
	.string	"ushList"
	.type	__pyx_k_vertex1, @object
	.size	__pyx_k_vertex1, 8
__pyx_k_vertex1:
	.string	"vertex1"
	.type	__pyx_k_vertex2, @object
	.size	__pyx_k_vertex2, 8
__pyx_k_vertex2:
	.string	"vertex2"
	.type	__pyx_k_vertex3, @object
	.size	__pyx_k_vertex3, 8
__pyx_k_vertex3:
	.string	"vertex3"
	.type	__pyx_k_vertex4, @object
	.size	__pyx_k_vertex4, 8
__pyx_k_vertex4:
	.string	"vertex4"
	.type	__pyx_k_Fraction, @object
	.size	__pyx_k_Fraction, 9
__pyx_k_Fraction:
	.string	"Fraction"
	.type	__pyx_k_allKSets, @object
	.size	__pyx_k_allKSets, 9
__pyx_k_allKSets:
	.string	"allKSets"
	.type	__pyx_k_fraction, @object
	.size	__pyx_k_fraction, 9
__pyx_k_fraction:
	.string	"fraction"
	.type	__pyx_k_friedman, @object
	.size	__pyx_k_friedman, 9
__pyx_k_friedman:
	.string	"friedman"
	.type	__pyx_k_nat3List, @object
	.size	__pyx_k_nat3List, 9
__pyx_k_nat3List:
	.string	"nat3List"
	.type	__pyx_k_oneXLess, @object
	.size	__pyx_k_oneXLess, 9
__pyx_k_oneXLess:
	.string	"oneXLess"
	.type	__pyx_k_oneYLess, @object
	.size	__pyx_k_oneYLess, 9
__pyx_k_oneYLess:
	.string	"oneYLess"
	.type	__pyx_k_qualname, @object
	.size	__pyx_k_qualname, 13
__pyx_k_qualname:
	.string	"__qualname__"
	.type	__pyx_k_hasAnEdge, @object
	.size	__pyx_k_hasAnEdge, 10
__pyx_k_hasAnEdge:
	.string	"hasAnEdge"
	.type	__pyx_k_itertools, @object
	.size	__pyx_k_itertools, 10
__pyx_k_itertools:
	.string	"itertools"
	.type	__pyx_k_metaclass, @object
	.size	__pyx_k_metaclass, 14
__pyx_k_metaclass:
	.string	"__metaclass__"
	.type	__pyx_k_numerator, @object
	.size	__pyx_k_numerator, 10
__pyx_k_numerator:
	.string	"numerator"
	.type	__pyx_k_setOfSets, @object
	.size	__pyx_k_setOfSets, 10
__pyx_k_setOfSets:
	.string	"setOfSets"
	.type	__pyx_k_testBench, @object
	.size	__pyx_k_testBench, 10
__pyx_k_testBench:
	.string	"testBench"
	.type	__pyx_k_threeList, @object
	.size	__pyx_k_threeList, 10
__pyx_k_threeList:
	.string	"threeList"
	.type	__pyx_k_listOfSets, @object
	.size	__pyx_k_listOfSets, 11
__pyx_k_listOfSets:
	.string	"listOfSets"
	.type	__pyx_k_returnList, @object
	.size	__pyx_k_returnList, 11
__pyx_k_returnList:
	.string	"returnList"
	.type	__pyx_k_setOfKSets, @object
	.size	__pyx_k_setOfKSets, 11
__pyx_k_setOfKSets:
	.string	"setOfKSets"
	.type	__pyx_k_denominator, @object
	.size	__pyx_k_denominator, 12
__pyx_k_denominator:
	.string	"denominator"
	.type	__pyx_k_eightKNRfac, @object
	.size	__pyx_k_eightKNRfac, 12
__pyx_k_eightKNRfac:
	.string	"eightKNRfac"
	.type	__pyx_k_friedmanMax, @object
	.size	__pyx_k_friedmanMax, 12
__pyx_k_friedmanMax:
	.string	"friedmanMax"
	.type	__pyx_k_allFractions, @object
	.size	__pyx_k_allFractions, 13
__pyx_k_allFractions:
	.string	"allFractions"
	.type	__pyx_k_allOrderings, @object
	.size	__pyx_k_allOrderings, 13
__pyx_k_allOrderings:
	.string	"allOrderings"
	.type	__pyx_k_checkIfKNROk, @object
	.size	__pyx_k_checkIfKNROk, 13
__pyx_k_checkIfKNROk:
	.string	"checkIfKNROk"
	.type	__pyx_k_newSetOfSets, @object
	.size	__pyx_k_newSetOfSets, 13
__pyx_k_newSetOfSets:
	.string	"newSetOfSets"
	.type	__pyx_k_smallerKSets, @object
	.size	__pyx_k_smallerKSets, 13
__pyx_k_smallerKSets:
	.string	"smallerKSets"
	.type	__pyx_k_allOrderings2, @object
	.size	__pyx_k_allOrderings2, 14
__pyx_k_allOrderings2:
	.string	"allOrderings2"
	.type	__pyx_k_legalOrdering, @object
	.size	__pyx_k_legalOrdering, 14
__pyx_k_legalOrdering:
	.string	"legalOrdering"
	.align 16
	.type	__pyx_k_Fraction___cmp, @object
	.size	__pyx_k_Fraction___cmp, 17
__pyx_k_Fraction___cmp:
	.string	"Fraction.__cmp__"
	.align 16
	.type	__pyx_k_Fraction___str, @object
	.size	__pyx_k_Fraction___str, 17
__pyx_k_Fraction___str:
	.string	"Fraction.__str__"
	.type	__pyx_k_allRSetsOfSets, @object
	.size	__pyx_k_allRSetsOfSets, 15
__pyx_k_allRSetsOfSets:
	.string	"allRSetsOfSets"
	.type	__pyx_k_returningFalse, @object
	.size	__pyx_k_returningFalse, 15
__pyx_k_returningFalse:
	.string	"returningFalse"
	.type	__pyx_k_threeListCopy1, @object
	.size	__pyx_k_threeListCopy1, 15
__pyx_k_threeListCopy1:
	.string	"threeListCopy1"
	.type	__pyx_k_threeListCopy2, @object
	.size	__pyx_k_threeListCopy2, 15
__pyx_k_threeListCopy2:
	.string	"threeListCopy2"
	.type	__pyx_k_threeListCopy3, @object
	.size	__pyx_k_threeListCopy3, 15
__pyx_k_threeListCopy3:
	.string	"threeListCopy3"
	.align 16
	.type	__pyx_k_Fraction___init, @object
	.size	__pyx_k_Fraction___init, 18
__pyx_k_Fraction___init:
	.string	"Fraction.__init__"
	.align 16
	.type	__pyx_k_Fraction___repr, @object
	.size	__pyx_k_Fraction___repr, 18
__pyx_k_Fraction___repr:
	.string	"Fraction.__repr__"
	.align 16
	.type	__pyx_k_generateAllKSets, @object
	.size	__pyx_k_generateAllKSets, 17
__pyx_k_generateAllKSets:
	.string	"generateAllKSets"
	.align 16
	.type	__pyx_k_setOfSetsWithUsh, @object
	.size	__pyx_k_setOfSetsWithUsh, 17
__pyx_k_setOfSetsWithUsh:
	.string	"setOfSetsWithUsh"
	.align 16
	.type	__pyx_k_checkIfOrderingOk, @object
	.size	__pyx_k_checkIfOrderingOk, 18
__pyx_k_checkIfOrderingOk:
	.string	"checkIfOrderingOk"
	.align 16
	.type	__pyx_k_elementsRemaining, @object
	.size	__pyx_k_elementsRemaining, 18
__pyx_k_elementsRemaining:
	.string	"elementsRemaining"
	.align 16
	.type	__pyx_k_allOrderingsHelper, @object
	.size	__pyx_k_allOrderingsHelper, 19
__pyx_k_allOrderingsHelper:
	.string	"allOrderingsHelper"
	.align 16
	.type	__pyx_k_isAnIndependentSet, @object
	.size	__pyx_k_isAnIndependentSet, 19
__pyx_k_isAnIndependentSet:
	.string	"isAnIndependentSet"
	.align 16
	.type	__pyx_k_listOfAllOrderings, @object
	.size	__pyx_k_listOfAllOrderings, 19
__pyx_k_listOfAllOrderings:
	.string	"listOfAllOrderings"
	.align 16
	.type	__pyx_k_smallerRSetsOfSets, @object
	.size	__pyx_k_smallerRSetsOfSets, 19
__pyx_k_smallerRSetsOfSets:
	.string	"smallerRSetsOfSets"
	.align 16
	.type	__pyx_k_OrderInvariantGraph, @object
	.size	__pyx_k_OrderInvariantGraph, 20
__pyx_k_OrderInvariantGraph:
	.string	"OrderInvariantGraph"
	.align 16
	.type	__pyx_k_allNat3ListsWithSumT, @object
	.size	__pyx_k_allNat3ListsWithSumT, 21
__pyx_k_allNat3ListsWithSumT:
	.string	"allNat3ListsWithSumT"
	.align 16
	.type	__pyx_k_allSetsOfSetsOfSizeR, @object
	.size	__pyx_k_allSetsOfSetsOfSizeR, 21
__pyx_k_allSetsOfSetsOfSizeR:
	.string	"allSetsOfSetsOfSizeR"
	.align 16
	.type	__pyx_k_generateAllFractions, @object
	.size	__pyx_k_generateAllFractions, 21
__pyx_k_generateAllFractions:
	.string	"generateAllFractions"
	.align 16
	.type	__pyx_k_allOrderingsWithZeroes, @object
	.size	__pyx_k_allOrderingsWithZeroes, 23
__pyx_k_allOrderingsWithZeroes:
	.string	"allOrderingsWithZeroes"
	.align 16
	.type	__pyx_k_onesVersusNegOnesBalance, @object
	.size	__pyx_k_onesVersusNegOnesBalance, 25
__pyx_k_onesVersusNegOnesBalance:
	.string	"onesVersusNegOnesBalance"
	.align 16
	.type	__pyx_k_allOrderingsWithoutZeroes, @object
	.size	__pyx_k_allOrderingsWithoutZeroes, 26
__pyx_k_allOrderingsWithoutZeroes:
	.string	"allOrderingsWithoutZeroes"
	.align 16
	.type	__pyx_k_OrderInvariantGraph___init, @object
	.size	__pyx_k_OrderInvariantGraph___init, 29
__pyx_k_OrderInvariantGraph___init:
	.string	"OrderInvariantGraph.__init__"
	.align 16
	.type	__pyx_k_restOfListWhenWeStartWithOne, @object
	.size	__pyx_k_restOfListWhenWeStartWithOne, 29
__pyx_k_restOfListWhenWeStartWithOne:
	.string	"restOfListWhenWeStartWithOne"
	.align 16
	.type	__pyx_k_listOfAllNumbersOfComplexityK, @object
	.size	__pyx_k_listOfAllNumbersOfComplexityK, 30
__pyx_k_listOfAllNumbersOfComplexityK:
	.string	"listOfAllNumbersOfComplexityK"
	.align 16
	.type	__pyx_k_restOfListWhenWeStartWithZero, @object
	.size	__pyx_k_restOfListWhenWeStartWithZero, 30
__pyx_k_restOfListWhenWeStartWithZero:
	.string	"restOfListWhenWeStartWithZero"
	.align 32
	.type	__pyx_k_home_adamyedidia_thesis_thesis, @object
	.size	__pyx_k_home_adamyedidia_thesis_thesis, 44
__pyx_k_home_adamyedidia_thesis_thesis:
	.string	"/home/adamyedidia/thesis/thesis/friedman.py"
	.align 32
	.type	__pyx_k_restOfListWhenWeStartWithNegOne, @object
	.size	__pyx_k_restOfListWhenWeStartWithNegOne, 32
__pyx_k_restOfListWhenWeStartWithNegOne:
	.string	"restOfListWhenWeStartWithNegOne"
	.local	__pyx_kp_s_
	.comm	__pyx_kp_s_,8,8
	.local	__pyx_n_s_Fraction
	.comm	__pyx_n_s_Fraction,8,8
	.local	__pyx_n_s_Fraction___cmp
	.comm	__pyx_n_s_Fraction___cmp,8,8
	.local	__pyx_n_s_Fraction___init
	.comm	__pyx_n_s_Fraction___init,8,8
	.local	__pyx_n_s_Fraction___repr
	.comm	__pyx_n_s_Fraction___repr,8,8
	.local	__pyx_n_s_Fraction___str
	.comm	__pyx_n_s_Fraction___str,8,8
	.local	__pyx_n_s_OrderInvariantGraph
	.comm	__pyx_n_s_OrderInvariantGraph,8,8
	.local	__pyx_n_s_OrderInvariantGraph___init
	.comm	__pyx_n_s_OrderInvariantGraph___init,8,8
	.local	__pyx_n_s_a
	.comm	__pyx_n_s_a,8,8
	.local	__pyx_n_s_allFractions
	.comm	__pyx_n_s_allFractions,8,8
	.local	__pyx_n_s_allKSets
	.comm	__pyx_n_s_allKSets,8,8
	.local	__pyx_n_s_allNat3ListsWithSumT
	.comm	__pyx_n_s_allNat3ListsWithSumT,8,8
	.local	__pyx_n_s_allOrderings
	.comm	__pyx_n_s_allOrderings,8,8
	.local	__pyx_n_s_allOrderings2
	.comm	__pyx_n_s_allOrderings2,8,8
	.local	__pyx_n_s_allOrderingsHelper
	.comm	__pyx_n_s_allOrderingsHelper,8,8
	.local	__pyx_n_s_allOrderingsWithZeroes
	.comm	__pyx_n_s_allOrderingsWithZeroes,8,8
	.local	__pyx_n_s_allOrderingsWithoutZeroes
	.comm	__pyx_n_s_allOrderingsWithoutZeroes,8,8
	.local	__pyx_n_s_allRSetsOfSets
	.comm	__pyx_n_s_allRSetsOfSets,8,8
	.local	__pyx_n_s_allSetsOfSetsOfSizeR
	.comm	__pyx_n_s_allSetsOfSetsOfSizeR,8,8
	.local	__pyx_n_s_b
	.comm	__pyx_n_s_b,8,8
	.local	__pyx_n_s_checkIfKNROk
	.comm	__pyx_n_s_checkIfKNROk,8,8
	.local	__pyx_n_s_checkIfOrderingOk
	.comm	__pyx_n_s_checkIfOrderingOk,8,8
	.local	__pyx_n_s_cmp
	.comm	__pyx_n_s_cmp,8,8
	.local	__pyx_n_s_denominator
	.comm	__pyx_n_s_denominator,8,8
	.local	__pyx_n_s_doc
	.comm	__pyx_n_s_doc,8,8
	.local	__pyx_n_s_eightKNRfac
	.comm	__pyx_n_s_eightKNRfac,8,8
	.local	__pyx_n_s_element
	.comm	__pyx_n_s_element,8,8
	.local	__pyx_n_s_elementsRemaining
	.comm	__pyx_n_s_elementsRemaining,8,8
	.local	__pyx_n_s_fac
	.comm	__pyx_n_s_fac,8,8
	.local	__pyx_n_s_fraction
	.comm	__pyx_n_s_fraction,8,8
	.local	__pyx_n_s_friedman
	.comm	__pyx_n_s_friedman,8,8
	.local	__pyx_n_s_friedmanMax
	.comm	__pyx_n_s_friedmanMax,8,8
	.local	__pyx_n_s_generateAllFractions
	.comm	__pyx_n_s_generateAllFractions,8,8
	.local	__pyx_n_s_generateAllKSets
	.comm	__pyx_n_s_generateAllKSets,8,8
	.local	__pyx_n_s_hasAnEdge
	.comm	__pyx_n_s_hasAnEdge,8,8
	.local	__pyx_kp_s_home_adamyedidia_thesis_thesis
	.comm	__pyx_kp_s_home_adamyedidia_thesis_thesis,8,8
	.local	__pyx_n_s_i
	.comm	__pyx_n_s_i,8,8
	.local	__pyx_n_s_import
	.comm	__pyx_n_s_import,8,8
	.local	__pyx_n_s_init
	.comm	__pyx_n_s_init,8,8
	.local	__pyx_n_s_isAnIndependentSet
	.comm	__pyx_n_s_isAnIndependentSet,8,8
	.local	__pyx_n_s_itertools
	.comm	__pyx_n_s_itertools,8,8
	.local	__pyx_n_s_k
	.comm	__pyx_n_s_k,8,8
	.local	__pyx_n_s_kSet1
	.comm	__pyx_n_s_kSet1,8,8
	.local	__pyx_n_s_kSet2
	.comm	__pyx_n_s_kSet2,8,8
	.local	__pyx_n_s_ksets
	.comm	__pyx_n_s_ksets,8,8
	.local	__pyx_n_s_legalOrdering
	.comm	__pyx_n_s_legalOrdering,8,8
	.local	__pyx_n_s_listOfAllNumbersOfComplexityK
	.comm	__pyx_n_s_listOfAllNumbersOfComplexityK,8,8
	.local	__pyx_n_s_listOfAllOrderings
	.comm	__pyx_n_s_listOfAllOrderings,8,8
	.local	__pyx_n_s_listOfSets
	.comm	__pyx_n_s_listOfSets,8,8
	.local	__pyx_n_s_main
	.comm	__pyx_n_s_main,8,8
	.local	__pyx_n_s_max
	.comm	__pyx_n_s_max,8,8
	.local	__pyx_n_s_metaclass
	.comm	__pyx_n_s_metaclass,8,8
	.local	__pyx_n_s_module
	.comm	__pyx_n_s_module,8,8
	.local	__pyx_n_s_n
	.comm	__pyx_n_s_n,8,8
	.local	__pyx_n_s_nat3List
	.comm	__pyx_n_s_nat3List,8,8
	.local	__pyx_n_s_newSet
	.comm	__pyx_n_s_newSet,8,8
	.local	__pyx_n_s_newSetOfSets
	.comm	__pyx_n_s_newSetOfSets,8,8
	.local	__pyx_n_s_numerator
	.comm	__pyx_n_s_numerator,8,8
	.local	__pyx_n_s_oneLess
	.comm	__pyx_n_s_oneLess,8,8
	.local	__pyx_n_s_oneXLess
	.comm	__pyx_n_s_oneXLess,8,8
	.local	__pyx_n_s_oneYLess
	.comm	__pyx_n_s_oneYLess,8,8
	.local	__pyx_n_s_onesVersusNegOnesBalance
	.comm	__pyx_n_s_onesVersusNegOnesBalance,8,8
	.local	__pyx_n_s_other
	.comm	__pyx_n_s_other,8,8
	.local	__pyx_n_s_prepare
	.comm	__pyx_n_s_prepare,8,8
	.local	__pyx_n_s_qualname
	.comm	__pyx_n_s_qualname,8,8
	.local	__pyx_n_s_r
	.comm	__pyx_n_s_r,8,8
	.local	__pyx_n_s_range
	.comm	__pyx_n_s_range,8,8
	.local	__pyx_n_s_reducee
	.comm	__pyx_n_s_reducee,8,8
	.local	__pyx_n_s_reducer
	.comm	__pyx_n_s_reducer,8,8
	.local	__pyx_n_s_reduces
	.comm	__pyx_n_s_reduces,8,8
	.local	__pyx_n_s_repr
	.comm	__pyx_n_s_repr,8,8
	.local	__pyx_n_s_restOfListWhenWeStartWithNegOne
	.comm	__pyx_n_s_restOfListWhenWeStartWithNegOne,8,8
	.local	__pyx_n_s_restOfListWhenWeStartWithOne
	.comm	__pyx_n_s_restOfListWhenWeStartWithOne,8,8
	.local	__pyx_n_s_restOfListWhenWeStartWithZero
	.comm	__pyx_n_s_restOfListWhenWeStartWithZero,8,8
	.local	__pyx_n_s_result
	.comm	__pyx_n_s_result,8,8
	.local	__pyx_n_s_returnList
	.comm	__pyx_n_s_returnList,8,8
	.local	__pyx_n_s_returningFalse
	.comm	__pyx_n_s_returningFalse,8,8
	.local	__pyx_n_s_rsets
	.comm	__pyx_n_s_rsets,8,8
	.local	__pyx_n_s_self
	.comm	__pyx_n_s_self,8,8
	.local	__pyx_n_s_set
	.comm	__pyx_n_s_set,8,8
	.local	__pyx_n_s_set1
	.comm	__pyx_n_s_set1,8,8
	.local	__pyx_n_s_set2
	.comm	__pyx_n_s_set2,8,8
	.local	__pyx_n_s_setOfKSets
	.comm	__pyx_n_s_setOfKSets,8,8
	.local	__pyx_n_s_setOfSets
	.comm	__pyx_n_s_setOfSets,8,8
	.local	__pyx_n_s_setOfSetsWithUsh
	.comm	__pyx_n_s_setOfSetsWithUsh,8,8
	.local	__pyx_n_s_setSize
	.comm	__pyx_n_s_setSize,8,8
	.local	__pyx_n_s_smallerKSets
	.comm	__pyx_n_s_smallerKSets,8,8
	.local	__pyx_n_s_smallerRSetsOfSets
	.comm	__pyx_n_s_smallerRSetsOfSets,8,8
	.local	__pyx_n_s_sort
	.comm	__pyx_n_s_sort,8,8
	.local	__pyx_n_s_str
	.comm	__pyx_n_s_str,8,8
	.local	__pyx_n_s_subList
	.comm	__pyx_n_s_subList,8,8
	.local	__pyx_n_s_t
	.comm	__pyx_n_s_t,8,8
	.local	__pyx_n_s_test
	.comm	__pyx_n_s_test,8,8
	.local	__pyx_n_s_testBench
	.comm	__pyx_n_s_testBench,8,8
	.local	__pyx_n_s_threeList
	.comm	__pyx_n_s_threeList,8,8
	.local	__pyx_n_s_threeListCopy1
	.comm	__pyx_n_s_threeListCopy1,8,8
	.local	__pyx_n_s_threeListCopy2
	.comm	__pyx_n_s_threeListCopy2,8,8
	.local	__pyx_n_s_threeListCopy3
	.comm	__pyx_n_s_threeListCopy3,8,8
	.local	__pyx_n_s_union
	.comm	__pyx_n_s_union,8,8
	.local	__pyx_n_s_ush
	.comm	__pyx_n_s_ush,8,8
	.local	__pyx_n_s_ushList
	.comm	__pyx_n_s_ushList,8,8
	.local	__pyx_n_s_vertex1
	.comm	__pyx_n_s_vertex1,8,8
	.local	__pyx_n_s_vertex2
	.comm	__pyx_n_s_vertex2,8,8
	.local	__pyx_n_s_vertex3
	.comm	__pyx_n_s_vertex3,8,8
	.local	__pyx_n_s_vertex4
	.comm	__pyx_n_s_vertex4,8,8
	.local	__pyx_n_s_x
	.comm	__pyx_n_s_x,8,8
	.local	__pyx_n_s_y
	.comm	__pyx_n_s_y,8,8
	.local	__pyx_int_0
	.comm	__pyx_int_0,8,8
	.local	__pyx_int_1
	.comm	__pyx_int_1,8,8
	.local	__pyx_int_2
	.comm	__pyx_int_2,8,8
	.local	__pyx_int_3
	.comm	__pyx_int_3,8,8
	.local	__pyx_int_4
	.comm	__pyx_int_4,8,8
	.local	__pyx_int_5
	.comm	__pyx_int_5,8,8
	.local	__pyx_int_6
	.comm	__pyx_int_6,8,8
	.local	__pyx_int_8
	.comm	__pyx_int_8,8,8
	.local	__pyx_int_24
	.comm	__pyx_int_24,8,8
	.local	__pyx_int_720
	.comm	__pyx_int_720,8,8
	.local	__pyx_int_neg_1
	.comm	__pyx_int_neg_1,8,8
	.local	__pyx_int_neg_2
	.comm	__pyx_int_neg_2,8,8
	.local	__pyx_int_neg_3
	.comm	__pyx_int_neg_3,8,8
	.local	__pyx_int_neg_4
	.comm	__pyx_int_neg_4,8,8
	.local	__pyx_int_neg_5
	.comm	__pyx_int_neg_5,8,8
	.local	__pyx_int_neg_6
	.comm	__pyx_int_neg_6,8,8
	.local	__pyx_slice__2
	.comm	__pyx_slice__2,8,8
	.local	__pyx_slice__3
	.comm	__pyx_slice__3,8,8
	.local	__pyx_slice__4
	.comm	__pyx_slice__4,8,8
	.local	__pyx_slice__5
	.comm	__pyx_slice__5,8,8
	.local	__pyx_slice__6
	.comm	__pyx_slice__6,8,8
	.local	__pyx_slice__7
	.comm	__pyx_slice__7,8,8
	.local	__pyx_slice__8
	.comm	__pyx_slice__8,8,8
	.local	__pyx_slice__9
	.comm	__pyx_slice__9,8,8
	.local	__pyx_slice__10
	.comm	__pyx_slice__10,8,8
	.local	__pyx_slice__11
	.comm	__pyx_slice__11,8,8
	.local	__pyx_tuple__12
	.comm	__pyx_tuple__12,8,8
	.local	__pyx_tuple__13
	.comm	__pyx_tuple__13,8,8
	.local	__pyx_tuple__14
	.comm	__pyx_tuple__14,8,8
	.local	__pyx_tuple__15
	.comm	__pyx_tuple__15,8,8
	.local	__pyx_tuple__16
	.comm	__pyx_tuple__16,8,8
	.local	__pyx_tuple__17
	.comm	__pyx_tuple__17,8,8
	.local	__pyx_tuple__18
	.comm	__pyx_tuple__18,8,8
	.local	__pyx_tuple__19
	.comm	__pyx_tuple__19,8,8
	.local	__pyx_tuple__20
	.comm	__pyx_tuple__20,8,8
	.local	__pyx_tuple__21
	.comm	__pyx_tuple__21,8,8
	.local	__pyx_tuple__22
	.comm	__pyx_tuple__22,8,8
	.local	__pyx_tuple__23
	.comm	__pyx_tuple__23,8,8
	.local	__pyx_tuple__24
	.comm	__pyx_tuple__24,8,8
	.local	__pyx_tuple__25
	.comm	__pyx_tuple__25,8,8
	.local	__pyx_tuple__26
	.comm	__pyx_tuple__26,8,8
	.local	__pyx_tuple__27
	.comm	__pyx_tuple__27,8,8
	.local	__pyx_tuple__28
	.comm	__pyx_tuple__28,8,8
	.local	__pyx_tuple__30
	.comm	__pyx_tuple__30,8,8
	.local	__pyx_tuple__32
	.comm	__pyx_tuple__32,8,8
	.local	__pyx_tuple__34
	.comm	__pyx_tuple__34,8,8
	.local	__pyx_tuple__36
	.comm	__pyx_tuple__36,8,8
	.local	__pyx_tuple__38
	.comm	__pyx_tuple__38,8,8
	.local	__pyx_tuple__40
	.comm	__pyx_tuple__40,8,8
	.local	__pyx_tuple__42
	.comm	__pyx_tuple__42,8,8
	.local	__pyx_tuple__44
	.comm	__pyx_tuple__44,8,8
	.local	__pyx_tuple__46
	.comm	__pyx_tuple__46,8,8
	.local	__pyx_tuple__48
	.comm	__pyx_tuple__48,8,8
	.local	__pyx_tuple__50
	.comm	__pyx_tuple__50,8,8
	.local	__pyx_tuple__52
	.comm	__pyx_tuple__52,8,8
	.local	__pyx_tuple__54
	.comm	__pyx_tuple__54,8,8
	.local	__pyx_tuple__56
	.comm	__pyx_tuple__56,8,8
	.local	__pyx_tuple__58
	.comm	__pyx_tuple__58,8,8
	.local	__pyx_tuple__60
	.comm	__pyx_tuple__60,8,8
	.local	__pyx_tuple__62
	.comm	__pyx_tuple__62,8,8
	.local	__pyx_tuple__64
	.comm	__pyx_tuple__64,8,8
	.local	__pyx_tuple__66
	.comm	__pyx_tuple__66,8,8
	.local	__pyx_tuple__68
	.comm	__pyx_tuple__68,8,8
	.local	__pyx_tuple__70
	.comm	__pyx_tuple__70,8,8
	.local	__pyx_tuple__72
	.comm	__pyx_tuple__72,8,8
	.local	__pyx_tuple__74
	.comm	__pyx_tuple__74,8,8
	.local	__pyx_codeobj__29
	.comm	__pyx_codeobj__29,8,8
	.local	__pyx_codeobj__31
	.comm	__pyx_codeobj__31,8,8
	.local	__pyx_codeobj__33
	.comm	__pyx_codeobj__33,8,8
	.local	__pyx_codeobj__35
	.comm	__pyx_codeobj__35,8,8
	.local	__pyx_codeobj__37
	.comm	__pyx_codeobj__37,8,8
	.local	__pyx_codeobj__39
	.comm	__pyx_codeobj__39,8,8
	.local	__pyx_codeobj__41
	.comm	__pyx_codeobj__41,8,8
	.local	__pyx_codeobj__43
	.comm	__pyx_codeobj__43,8,8
	.local	__pyx_codeobj__45
	.comm	__pyx_codeobj__45,8,8
	.local	__pyx_codeobj__47
	.comm	__pyx_codeobj__47,8,8
	.local	__pyx_codeobj__49
	.comm	__pyx_codeobj__49,8,8
	.local	__pyx_codeobj__51
	.comm	__pyx_codeobj__51,8,8
	.local	__pyx_codeobj__53
	.comm	__pyx_codeobj__53,8,8
	.local	__pyx_codeobj__55
	.comm	__pyx_codeobj__55,8,8
	.local	__pyx_codeobj__57
	.comm	__pyx_codeobj__57,8,8
	.local	__pyx_codeobj__59
	.comm	__pyx_codeobj__59,8,8
	.local	__pyx_codeobj__61
	.comm	__pyx_codeobj__61,8,8
	.local	__pyx_codeobj__63
	.comm	__pyx_codeobj__63,8,8
	.local	__pyx_codeobj__65
	.comm	__pyx_codeobj__65,8,8
	.local	__pyx_codeobj__67
	.comm	__pyx_codeobj__67,8,8
	.local	__pyx_codeobj__69
	.comm	__pyx_codeobj__69,8,8
	.local	__pyx_codeobj__71
	.comm	__pyx_codeobj__71,8,8
	.local	__pyx_codeobj__73
	.comm	__pyx_codeobj__73,8,8
	.local	__pyx_codeobj__75
	.comm	__pyx_codeobj__75,8,8
	.section	.rodata
.LC2:
	.string	"__init__"
	.data
	.align 32
	.type	__pyx_mdef_8friedman_19OrderInvariantGraph_1__init__, @object
	.size	__pyx_mdef_8friedman_19OrderInvariantGraph_1__init__, 32
__pyx_mdef_8friedman_19OrderInvariantGraph_1__init__:
	.quad	.LC2
	.quad	__pyx_pw_8friedman_19OrderInvariantGraph_1__init__
	.long	3
	.zero	4
	.quad	0
	.section	.rodata
	.align 8
.LC3:
	.string	"friedman.OrderInvariantGraph.__init__"
	.text
	.type	__pyx_pw_8friedman_19OrderInvariantGraph_1__init__, @function
__pyx_pw_8friedman_19OrderInvariantGraph_1__init__:
.LFB5:
	.cfi_startproc
	pushq	%rbp
	.cfi_def_cfa_offset 16
	.cfi_offset 6, -16
	movq	%rsp, %rbp
	.cfi_def_cfa_register 6
	subq	$112, %rsp
	movq	%rdi, -88(%rbp)
	movq	%rsi, -96(%rbp)
	movq	%rdx, -104(%rbp)
	movq	$0, -64(%rbp)
	movq	$0, -56(%rbp)
	movl	$0, -44(%rbp)
	movq	$0, -40(%rbp)
	movl	$0, -28(%rbp)
	movq	$0, -24(%rbp)
	movq	$0, -80(%rbp)
	movq	$0, -72(%rbp)
	cmpq	$0, -104(%rbp)
	setne	%al
	movzbl	%al, %eax
	testq	%rax, %rax
	je	.L20
	movq	-96(%rbp), %rax
	movq	16(%rax), %rax
	movq	%rax, -8(%rbp)
	movq	-8(%rbp), %rax
	cmpq	$1, %rax
	je	.L23
	cmpq	$2, %rax
	je	.L24
	testq	%rax, %rax
	je	.L38
	jmp	.L26
.L24:
	movq	-96(%rbp), %rax
	movq	32(%rax), %rax
	movq	%rax, -72(%rbp)
.L23:
	movq	-96(%rbp), %rax
	movq	24(%rax), %rax
	movq	%rax, -80(%rbp)
	jmp	.L25
.L38:
	nop
.L25:
	movq	-104(%rbp), %rax
	movq	%rax, %rdi
	call	PyDict_Size
	movq	%rax, -16(%rbp)
	movq	-8(%rbp), %rax
	testq	%rax, %rax
	je	.L28
	cmpq	$1, %rax
	je	.L29
	jmp	.L27
.L28:
	movq	__pyx_n_s_self(%rip), %rdx
	movq	-104(%rbp), %rax
	movq	%rdx, %rsi
	movq	%rax, %rdi
	call	PyDict_GetItem
	movq	%rax, -80(%rbp)
	movq	-80(%rbp), %rax
	testq	%rax, %rax
	setne	%al
	movzbl	%al, %eax
	testq	%rax, %rax
	je	.L39
	subq	$1, -16(%rbp)
.L29:
	movq	__pyx_n_s_legalOrdering(%rip), %rdx
	movq	-104(%rbp), %rax
	movq	%rdx, %rsi
	movq	%rax, %rdi
	call	PyDict_GetItem
	movq	%rax, -72(%rbp)
	movq	-72(%rbp), %rax
	testq	%rax, %rax
	setne	%al
	movzbl	%al, %eax
	testq	%rax, %rax
	je	.L31
	subq	$1, -16(%rbp)
	jmp	.L27
.L31:
	movl	$1, %r8d
	movl	$2, %ecx
	movl	$2, %edx
	movl	$1, %esi
	movl	$.LC2, %edi
	call	__Pyx_RaiseArgtupleInvalid
	movq	__pyx_f(%rip), %rax
	movq	%rax, -40(%rbp)
	movl	$4, -44(%rbp)
	movl	$1097, -28(%rbp)
	jmp	.L32
.L27:
	cmpq	$0, -16(%rbp)
	setg	%al
	movzbl	%al, %eax
	testq	%rax, %rax
	je	.L33
	movq	-8(%rbp), %rcx
	leaq	-80(%rbp), %rdx
	movq	-104(%rbp), %rax
	movl	$.LC2, %r9d
	movq	%rcx, %r8
	movq	%rdx, %rcx
	movl	$0, %edx
	movl	$__pyx_pyargnames.9414, %esi
	movq	%rax, %rdi
	call	__Pyx_ParseOptionalKeywords
	cltq
	shrq	$63, %rax
	testq	%rax, %rax
	je	.L33
	movq	__pyx_f(%rip), %rax
	movq	%rax, -40(%rbp)
	movl	$4, -44(%rbp)
	movl	$1101, -28(%rbp)
	jmp	.L32
.L20:
	movq	-96(%rbp), %rax
	movq	16(%rax), %rax
	cmpq	$2, %rax
	jne	.L40
.L34:
	movq	-96(%rbp), %rax
	movq	24(%rax), %rax
	movq	%rax, -80(%rbp)
	movq	-96(%rbp), %rax
	movq	32(%rax), %rax
	movq	%rax, -72(%rbp)
.L33:
	movq	-80(%rbp), %rax
	movq	%rax, -64(%rbp)
	movq	-72(%rbp), %rax
	movq	%rax, -56(%rbp)
	nop
.L35:
	movq	-56(%rbp), %rdx
	movq	-64(%rbp), %rcx
	movq	-88(%rbp), %rax
	movq	%rcx, %rsi
	movq	%rax, %rdi
	call	__pyx_pf_8friedman_19OrderInvariantGraph___init__
	movq	%rax, -24(%rbp)
	movq	-24(%rbp), %rax
	jmp	.L36
.L39:
	nop
	jmp	.L26
.L40:
	nop
.L26:
	movq	-96(%rbp), %rax
	movq	16(%rax), %rax
	movq	%rax, %r8
	movl	$2, %ecx
	movl	$2, %edx
	movl	$1, %esi
	movl	$.LC2, %edi
	call	__Pyx_RaiseArgtupleInvalid
	movq	__pyx_f(%rip), %rax
	movq	%rax, -40(%rbp)
	movl	$4, -44(%rbp)
	movl	$1114, -28(%rbp)
.L32:
	movq	-40(%rbp), %rcx
	movl	-44(%rbp), %edx
	movl	-28(%rbp), %eax
	movl	%eax, %esi
	movl	$.LC3, %edi
	call	__Pyx_AddTraceback
	movl	$0, %eax
.L36:
	leave
	.cfi_def_cfa 7, 8
	ret
	.cfi_endproc
.LFE5:
	.size	__pyx_pw_8friedman_19OrderInvariantGraph_1__init__, .-__pyx_pw_8friedman_19OrderInvariantGraph_1__init__
	.type	__pyx_pf_8friedman_19OrderInvariantGraph___init__, @function
__pyx_pf_8friedman_19OrderInvariantGraph___init__:
.LFB6:
	.cfi_startproc
	pushq	%rbp
	.cfi_def_cfa_offset 16
	.cfi_offset 6, -16
	movq	%rsp, %rbp
	.cfi_def_cfa_register 6
	subq	$80, %rsp
	movq	%rdi, -56(%rbp)
	movq	%rsi, -64(%rbp)
	movq	%rdx, -72(%rbp)
	movq	$0, -48(%rbp)
	movq	$0, -32(%rbp)
	movl	$0, -20(%rbp)
	movq	$0, -16(%rbp)
	movl	$0, -4(%rbp)
	movq	__pyx_n_s_legalOrdering(%rip), %rcx
	movq	-72(%rbp), %rdx
	movq	-64(%rbp), %rax
	movq	%rcx, %rsi
	movq	%rax, %rdi
	call	__Pyx_PyObject_SetAttrStr
	testl	%eax, %eax
	jns	.L42
	movq	__pyx_f(%rip), %rax
	movq	%rax, -16(%rbp)
	movl	$5, -20(%rbp)
	movl	$1144, -4(%rbp)
	jmp	.L43
.L42:
	movq	-72(%rbp), %rax
	movq	%rax, %rdi
	call	PyObject_Size
	movq	%rax, -40(%rbp)
	cmpq	$-1, -40(%rbp)
	sete	%al
	movzbl	%al, %eax
	testq	%rax, %rax
	je	.L44
	movq	__pyx_f(%rip), %rax
	movq	%rax, -16(%rbp)
	movl	$6, -20(%rbp)
	movl	$1153, -4(%rbp)
	jmp	.L43
.L44:
	movq	-40(%rbp), %rax
	movl	$2, %esi
	movq	%rax, %rdi
	call	__Pyx_div_Py_ssize_t
	movq	%rax, %rdi
	call	PyInt_FromSsize_t
	movq	%rax, -32(%rbp)
	cmpq	$0, -32(%rbp)
	sete	%al
	movzbl	%al, %eax
	testq	%rax, %rax
	je	.L45
	movq	__pyx_f(%rip), %rax
	movq	%rax, -16(%rbp)
	movl	$6, -20(%rbp)
	movl	$1154, -4(%rbp)
	jmp	.L43
.L45:
	movq	__pyx_n_s_setSize(%rip), %rcx
	movq	-32(%rbp), %rdx
	movq	-64(%rbp), %rax
	movq	%rcx, %rsi
	movq	%rax, %rdi
	call	__Pyx_PyObject_SetAttrStr
	testl	%eax, %eax
	jns	.L46
	movq	__pyx_f(%rip), %rax
	movq	%rax, -16(%rbp)
	movl	$6, -20(%rbp)
	movl	$1156, -4(%rbp)
	jmp	.L43
.L46:
	movq	-32(%rbp), %rax
	movq	(%rax), %rax
	leaq	-1(%rax), %rdx
	movq	-32(%rbp), %rax
	movq	%rdx, (%rax)
	movq	-32(%rbp), %rax
	movq	(%rax), %rax
	testq	%rax, %rax
	jne	.L47
	movq	-32(%rbp), %rax
	movq	8(%rax), %rax
	movq	48(%rax), %rdx
	movq	-32(%rbp), %rax
	movq	%rax, %rdi
	call	*%rdx
.L47:
	movq	$0, -32(%rbp)
	movq	$_Py_NoneStruct, -48(%rbp)
	movq	_Py_NoneStruct(%rip), %rax
	addq	$1, %rax
	movq	%rax, _Py_NoneStruct(%rip)
	jmp	.L48
.L43:
	cmpq	$0, -32(%rbp)
	je	.L49
	movq	-32(%rbp), %rax
	movq	(%rax), %rax
	leaq	-1(%rax), %rdx
	movq	-32(%rbp), %rax
	movq	%rdx, (%rax)
	movq	-32(%rbp), %rax
	movq	(%rax), %rax
	testq	%rax, %rax
	jne	.L49
	movq	-32(%rbp), %rax
	movq	8(%rax), %rax
	movq	48(%rax), %rdx
	movq	-32(%rbp), %rax
	movq	%rax, %rdi
	call	*%rdx
.L49:
	movq	-16(%rbp), %rcx
	movl	-20(%rbp), %edx
	movl	-4(%rbp), %eax
	movl	%eax, %esi
	movl	$.LC3, %edi
	call	__Pyx_AddTraceback
	movq	$0, -48(%rbp)
.L48:
	movq	-48(%rbp), %rax
	leave
	.cfi_def_cfa 7, 8
	ret
	.cfi_endproc
.LFE6:
	.size	__pyx_pf_8friedman_19OrderInvariantGraph___init__, .-__pyx_pf_8friedman_19OrderInvariantGraph___init__
	.data
	.align 32
	.type	__pyx_mdef_8friedman_8Fraction_1__init__, @object
	.size	__pyx_mdef_8friedman_8Fraction_1__init__, 32
__pyx_mdef_8friedman_8Fraction_1__init__:
	.quad	.LC2
	.quad	__pyx_pw_8friedman_8Fraction_1__init__
	.long	3
	.zero	4
	.quad	0
	.section	.rodata
.LC4:
	.string	"friedman.Fraction.__init__"
	.text
	.type	__pyx_pw_8friedman_8Fraction_1__init__, @function
__pyx_pw_8friedman_8Fraction_1__init__:
.LFB7:
	.cfi_startproc
	pushq	%rbp
	.cfi_def_cfa_offset 16
	.cfi_offset 6, -16
	movq	%rsp, %rbp
	.cfi_def_cfa_register 6
	pushq	%rbx
	subq	$136, %rsp
	movq	%rdi, -120(%rbp)
	movq	%rsi, -128(%rbp)
	movq	%rdx, -136(%rbp)
	movq	$0, -88(%rbp)
	movq	$0, -80(%rbp)
	movq	$0, -72(%rbp)
	movl	$0, -60(%rbp)
	movq	$0, -56(%rbp)
	movl	$0, -44(%rbp)
	movq	$0, -40(%rbp)
	movq	$0, -112(%rbp)
	movq	$0, -104(%rbp)
	movq	$0, -96(%rbp)
	cmpq	$0, -136(%rbp)
	setne	%al
	movzbl	%al, %eax
	testq	%rax, %rax
	je	.L52
	.cfi_offset 3, -24
	movq	-128(%rbp), %rax
	movq	16(%rax), %rax
	movq	%rax, -24(%rbp)
	movq	-24(%rbp), %rax
	cmpq	$1, %rax
	je	.L55
	cmpq	$1, %rax
	jg	.L58
	testq	%rax, %rax
	je	.L74
	jmp	.L60
.L58:
	cmpq	$2, %rax
	je	.L56
	cmpq	$3, %rax
	jne	.L75
.L57:
	movq	-128(%rbp), %rax
	movq	40(%rax), %rax
	movq	%rax, -96(%rbp)
.L56:
	movq	-128(%rbp), %rax
	movq	32(%rax), %rax
	movq	%rax, -104(%rbp)
.L55:
	movq	-128(%rbp), %rax
	movq	24(%rax), %rax
	movq	%rax, -112(%rbp)
	jmp	.L59
.L74:
	nop
.L59:
	movq	-136(%rbp), %rax
	movq	%rax, %rdi
	call	PyDict_Size
	movq	%rax, -32(%rbp)
	movq	-24(%rbp), %rax
	cmpq	$1, %rax
	je	.L63
	cmpq	$2, %rax
	je	.L64
	testq	%rax, %rax
	jne	.L61
.L62:
	movq	__pyx_n_s_self(%rip), %rdx
	movq	-136(%rbp), %rax
	movq	%rdx, %rsi
	movq	%rax, %rdi
	call	PyDict_GetItem
	movq	%rax, -112(%rbp)
	movq	-112(%rbp), %rax
	testq	%rax, %rax
	setne	%al
	movzbl	%al, %eax
	testq	%rax, %rax
	je	.L76
	subq	$1, -32(%rbp)
.L63:
	movq	__pyx_n_s_numerator(%rip), %rdx
	movq	-136(%rbp), %rax
	movq	%rdx, %rsi
	movq	%rax, %rdi
	call	PyDict_GetItem
	movq	%rax, -104(%rbp)
	movq	-104(%rbp), %rax
	testq	%rax, %rax
	setne	%al
	movzbl	%al, %eax
	testq	%rax, %rax
	je	.L66
	subq	$1, -32(%rbp)
	jmp	.L64
.L66:
	movl	$1, %r8d
	movl	$3, %ecx
	movl	$3, %edx
	movl	$1, %esi
	movl	$.LC2, %edi
	call	__Pyx_RaiseArgtupleInvalid
	movq	__pyx_f(%rip), %rax
	movq	%rax, -56(%rbp)
	movl	$10, -60(%rbp)
	movl	$1222, -44(%rbp)
	jmp	.L67
.L64:
	movq	__pyx_n_s_denominator(%rip), %rdx
	movq	-136(%rbp), %rax
	movq	%rdx, %rsi
	movq	%rax, %rdi
	call	PyDict_GetItem
	movq	%rax, -96(%rbp)
	movq	-96(%rbp), %rax
	testq	%rax, %rax
	setne	%al
	movzbl	%al, %eax
	testq	%rax, %rax
	je	.L68
	subq	$1, -32(%rbp)
	jmp	.L61
.L68:
	movl	$2, %r8d
	movl	$3, %ecx
	movl	$3, %edx
	movl	$1, %esi
	movl	$.LC2, %edi
	call	__Pyx_RaiseArgtupleInvalid
	movq	__pyx_f(%rip), %rax
	movq	%rax, -56(%rbp)
	movl	$10, -60(%rbp)
	movl	$1227, -44(%rbp)
	jmp	.L67
.L61:
	cmpq	$0, -32(%rbp)
	setg	%al
	movzbl	%al, %eax
	testq	%rax, %rax
	je	.L69
	movq	-24(%rbp), %rcx
	leaq	-112(%rbp), %rdx
	movq	-136(%rbp), %rax
	movl	$.LC2, %r9d
	movq	%rcx, %r8
	movq	%rdx, %rcx
	movl	$0, %edx
	movl	$__pyx_pyargnames.9548, %esi
	movq	%rax, %rdi
	call	__Pyx_ParseOptionalKeywords
	cltq
	shrq	$63, %rax
	testq	%rax, %rax
	je	.L69
	movq	__pyx_f(%rip), %rax
	movq	%rax, -56(%rbp)
	movl	$10, -60(%rbp)
	movl	$1231, -44(%rbp)
	jmp	.L67
.L52:
	movq	-128(%rbp), %rax
	movq	16(%rax), %rax
	cmpq	$3, %rax
	jne	.L77
.L70:
	movq	-128(%rbp), %rax
	movq	24(%rax), %rax
	movq	%rax, -112(%rbp)
	movq	-128(%rbp), %rax
	movq	32(%rax), %rax
	movq	%rax, -104(%rbp)
	movq	-128(%rbp), %rax
	movq	40(%rax), %rax
	movq	%rax, -96(%rbp)
.L69:
	movq	-112(%rbp), %rax
	movq	%rax, -88(%rbp)
	movq	-104(%rbp), %rax
	movq	%rax, -80(%rbp)
	movq	-96(%rbp), %rax
	movq	%rax, -72(%rbp)
	nop
.L71:
	movq	-72(%rbp), %rcx
	movq	-80(%rbp), %rdx
	movq	-88(%rbp), %rbx
	movq	-120(%rbp), %rax
	movq	%rbx, %rsi
	movq	%rax, %rdi
	call	__pyx_pf_8friedman_8Fraction___init__
	movq	%rax, -40(%rbp)
	movq	-40(%rbp), %rax
	jmp	.L72
.L75:
	nop
	jmp	.L60
.L76:
	nop
	jmp	.L60
.L77:
	nop
.L60:
	movq	-128(%rbp), %rax
	movq	16(%rax), %rax
	movq	%rax, %r8
	movl	$3, %ecx
	movl	$3, %edx
	movl	$1, %esi
	movl	$.LC2, %edi
	call	__Pyx_RaiseArgtupleInvalid
	movq	__pyx_f(%rip), %rax
	movq	%rax, -56(%rbp)
	movl	$10, -60(%rbp)
	movl	$1246, -44(%rbp)
.L67:
	movq	-56(%rbp), %rcx
	movl	-60(%rbp), %edx
	movl	-44(%rbp), %eax
	movl	%eax, %esi
	movl	$.LC4, %edi
	call	__Pyx_AddTraceback
	movl	$0, %eax
.L72:
	addq	$136, %rsp
	popq	%rbx
	leave
	.cfi_def_cfa 7, 8
	ret
	.cfi_endproc
.LFE7:
	.size	__pyx_pw_8friedman_8Fraction_1__init__, .-__pyx_pw_8friedman_8Fraction_1__init__
	.type	__pyx_pf_8friedman_8Fraction___init__, @function
__pyx_pf_8friedman_8Fraction___init__:
.LFB8:
	.cfi_startproc
	pushq	%rbp
	.cfi_def_cfa_offset 16
	.cfi_offset 6, -16
	movq	%rsp, %rbp
	.cfi_def_cfa_register 6
	subq	$64, %rsp
	movq	%rdi, -40(%rbp)
	movq	%rsi, -48(%rbp)
	movq	%rdx, -56(%rbp)
	movq	%rcx, -64(%rbp)
	movq	$0, -32(%rbp)
	movl	$0, -20(%rbp)
	movq	$0, -16(%rbp)
	movl	$0, -4(%rbp)
	movq	__pyx_n_s_numerator(%rip), %rcx
	movq	-56(%rbp), %rdx
	movq	-48(%rbp), %rax
	movq	%rcx, %rsi
	movq	%rax, %rdi
	call	__Pyx_PyObject_SetAttrStr
	testl	%eax, %eax
	jns	.L79
	movq	__pyx_f(%rip), %rax
	movq	%rax, -16(%rbp)
	movl	$11, -20(%rbp)
	movl	$1274, -4(%rbp)
	jmp	.L80
.L79:
	movq	__pyx_n_s_denominator(%rip), %rcx
	movq	-64(%rbp), %rdx
	movq	-48(%rbp), %rax
	movq	%rcx, %rsi
	movq	%rax, %rdi
	call	__Pyx_PyObject_SetAttrStr
	testl	%eax, %eax
	jns	.L81
	movq	__pyx_f(%rip), %rax
	movq	%rax, -16(%rbp)
	movl	$12, -20(%rbp)
	movl	$1283, -4(%rbp)
	jmp	.L80
.L81:
	movq	$_Py_NoneStruct, -32(%rbp)
	movq	_Py_NoneStruct(%rip), %rax
	addq	$1, %rax
	movq	%rax, _Py_NoneStruct(%rip)
	jmp	.L82
.L80:
	movq	-16(%rbp), %rcx
	movl	-20(%rbp), %edx
	movl	-4(%rbp), %eax
	movl	%eax, %esi
	movl	$.LC4, %edi
	call	__Pyx_AddTraceback
	movq	$0, -32(%rbp)
.L82:
	movq	-32(%rbp), %rax
	leave
	.cfi_def_cfa 7, 8
	ret
	.cfi_endproc
.LFE8:
	.size	__pyx_pf_8friedman_8Fraction___init__, .-__pyx_pf_8friedman_8Fraction___init__
	.section	.rodata
.LC5:
	.string	"__cmp__"
	.data
	.align 32
	.type	__pyx_mdef_8friedman_8Fraction_3__cmp__, @object
	.size	__pyx_mdef_8friedman_8Fraction_3__cmp__, 32
__pyx_mdef_8friedman_8Fraction_3__cmp__:
	.quad	.LC5
	.quad	__pyx_pw_8friedman_8Fraction_3__cmp__
	.long	3
	.zero	4
	.quad	0
	.section	.rodata
.LC6:
	.string	"friedman.Fraction.__cmp__"
	.text
	.type	__pyx_pw_8friedman_8Fraction_3__cmp__, @function
__pyx_pw_8friedman_8Fraction_3__cmp__:
.LFB9:
	.cfi_startproc
	pushq	%rbp
	.cfi_def_cfa_offset 16
	.cfi_offset 6, -16
	movq	%rsp, %rbp
	.cfi_def_cfa_register 6
	subq	$112, %rsp
	movq	%rdi, -88(%rbp)
	movq	%rsi, -96(%rbp)
	movq	%rdx, -104(%rbp)
	movq	$0, -64(%rbp)
	movq	$0, -56(%rbp)
	movl	$0, -44(%rbp)
	movq	$0, -40(%rbp)
	movl	$0, -28(%rbp)
	movq	$0, -24(%rbp)
	movq	$0, -80(%rbp)
	movq	$0, -72(%rbp)
	cmpq	$0, -104(%rbp)
	setne	%al
	movzbl	%al, %eax
	testq	%rax, %rax
	je	.L85
	movq	-96(%rbp), %rax
	movq	16(%rax), %rax
	movq	%rax, -8(%rbp)
	movq	-8(%rbp), %rax
	cmpq	$1, %rax
	je	.L88
	cmpq	$2, %rax
	je	.L89
	testq	%rax, %rax
	je	.L103
	jmp	.L91
.L89:
	movq	-96(%rbp), %rax
	movq	32(%rax), %rax
	movq	%rax, -72(%rbp)
.L88:
	movq	-96(%rbp), %rax
	movq	24(%rax), %rax
	movq	%rax, -80(%rbp)
	jmp	.L90
.L103:
	nop
.L90:
	movq	-104(%rbp), %rax
	movq	%rax, %rdi
	call	PyDict_Size
	movq	%rax, -16(%rbp)
	movq	-8(%rbp), %rax
	testq	%rax, %rax
	je	.L93
	cmpq	$1, %rax
	je	.L94
	jmp	.L92
.L93:
	movq	__pyx_n_s_self(%rip), %rdx
	movq	-104(%rbp), %rax
	movq	%rdx, %rsi
	movq	%rax, %rdi
	call	PyDict_GetItem
	movq	%rax, -80(%rbp)
	movq	-80(%rbp), %rax
	testq	%rax, %rax
	setne	%al
	movzbl	%al, %eax
	testq	%rax, %rax
	je	.L104
	subq	$1, -16(%rbp)
.L94:
	movq	__pyx_n_s_other(%rip), %rdx
	movq	-104(%rbp), %rax
	movq	%rdx, %rsi
	movq	%rax, %rdi
	call	PyDict_GetItem
	movq	%rax, -72(%rbp)
	movq	-72(%rbp), %rax
	testq	%rax, %rax
	setne	%al
	movzbl	%al, %eax
	testq	%rax, %rax
	je	.L96
	subq	$1, -16(%rbp)
	jmp	.L92
.L96:
	movl	$1, %r8d
	movl	$2, %ecx
	movl	$2, %edx
	movl	$1, %esi
	movl	$.LC5, %edi
	call	__Pyx_RaiseArgtupleInvalid
	movq	__pyx_f(%rip), %rax
	movq	%rax, -40(%rbp)
	movl	$14, -44(%rbp)
	movl	$1345, -28(%rbp)
	jmp	.L97
.L92:
	cmpq	$0, -16(%rbp)
	setg	%al
	movzbl	%al, %eax
	testq	%rax, %rax
	je	.L98
	movq	-8(%rbp), %rcx
	leaq	-80(%rbp), %rdx
	movq	-104(%rbp), %rax
	movl	$.LC5, %r9d
	movq	%rcx, %r8
	movq	%rdx, %rcx
	movl	$0, %edx
	movl	$__pyx_pyargnames.9664, %esi
	movq	%rax, %rdi
	call	__Pyx_ParseOptionalKeywords
	cltq
	shrq	$63, %rax
	testq	%rax, %rax
	je	.L98
	movq	__pyx_f(%rip), %rax
	movq	%rax, -40(%rbp)
	movl	$14, -44(%rbp)
	movl	$1349, -28(%rbp)
	jmp	.L97
.L85:
	movq	-96(%rbp), %rax
	movq	16(%rax), %rax
	cmpq	$2, %rax
	jne	.L105
.L99:
	movq	-96(%rbp), %rax
	movq	24(%rax), %rax
	movq	%rax, -80(%rbp)
	movq	-96(%rbp), %rax
	movq	32(%rax), %rax
	movq	%rax, -72(%rbp)
.L98:
	movq	-80(%rbp), %rax
	movq	%rax, -64(%rbp)
	movq	-72(%rbp), %rax
	movq	%rax, -56(%rbp)
	nop
.L100:
	movq	-56(%rbp), %rdx
	movq	-64(%rbp), %rcx
	movq	-88(%rbp), %rax
	movq	%rcx, %rsi
	movq	%rax, %rdi
	call	__pyx_pf_8friedman_8Fraction_2__cmp__
	movq	%rax, -24(%rbp)
	movq	-24(%rbp), %rax
	jmp	.L101
.L104:
	nop
	jmp	.L91
.L105:
	nop
.L91:
	movq	-96(%rbp), %rax
	movq	16(%rax), %rax
	movq	%rax, %r8
	movl	$2, %ecx
	movl	$2, %edx
	movl	$1, %esi
	movl	$.LC5, %edi
	call	__Pyx_RaiseArgtupleInvalid
	movq	__pyx_f(%rip), %rax
	movq	%rax, -40(%rbp)
	movl	$14, -44(%rbp)
	movl	$1362, -28(%rbp)
.L97:
	movq	-40(%rbp), %rcx
	movl	-44(%rbp), %edx
	movl	-28(%rbp), %eax
	movl	%eax, %esi
	movl	$.LC6, %edi
	call	__Pyx_AddTraceback
	movl	$0, %eax
.L101:
	leave
	.cfi_def_cfa 7, 8
	ret
	.cfi_endproc
.LFE9:
	.size	__pyx_pw_8friedman_8Fraction_3__cmp__, .-__pyx_pw_8friedman_8Fraction_3__cmp__
	.section	.rodata
.LC9:
	.string	"float division"
	.text
	.type	__pyx_pf_8friedman_8Fraction_2__cmp__, @function
__pyx_pf_8friedman_8Fraction_2__cmp__:
.LFB10:
	.cfi_startproc
	pushq	%rbp
	.cfi_def_cfa_offset 16
	.cfi_offset 6, -16
	movq	%rsp, %rbp
	.cfi_def_cfa_register 6
	subq	$144, %rsp
	movq	%rdi, -104(%rbp)
	movq	%rsi, -112(%rbp)
	movq	%rdx, -120(%rbp)
	movq	$0, -88(%rbp)
	movq	$0, -80(%rbp)
	movl	$0, -36(%rbp)
	movq	$0, -32(%rbp)
	movl	$0, -20(%rbp)
	movq	__pyx_n_s_numerator(%rip), %rdx
	movq	-112(%rbp), %rax
	movq	%rdx, %rsi
	movq	%rax, %rdi
	call	__Pyx_PyObject_GetAttrStr
	movq	%rax, -80(%rbp)
	cmpq	$0, -80(%rbp)
	sete	%al
	movzbl	%al, %eax
	testq	%rax, %rax
	je	.L107
	movq	__pyx_f(%rip), %rax
	movq	%rax, -32(%rbp)
	movl	$15, -36(%rbp)
	movl	$1396, -20(%rbp)
	jmp	.L108
.L107:
	movq	-80(%rbp), %rax
	movq	8(%rax), %rax
	cmpq	$PyFloat_Type, %rax
	sete	%al
	movzbl	%al, %eax
	testq	%rax, %rax
	je	.L109
	movq	-80(%rbp), %rax
	movq	16(%rax), %rax
	jmp	.L110
.L109:
	movq	-80(%rbp), %rax
	movq	%rax, %rdi
	call	__Pyx__PyObject_AsDouble
	movsd	%xmm0, -136(%rbp)
	movq	-136(%rbp), %rax
.L110:
	movq	%rax, -72(%rbp)
	movsd	.LC7(%rip), %xmm0
	ucomisd	-72(%rbp), %xmm0
	sete	%al
	setnp	%dl
	andl	%edx, %eax
	movzbl	%al, %eax
	testq	%rax, %rax
	je	.L111
	call	PyErr_Occurred
	testq	%rax, %rax
	setne	%al
	movzbl	%al, %eax
	testq	%rax, %rax
	je	.L111
	movq	__pyx_f(%rip), %rax
	movq	%rax, -32(%rbp)
	movl	$15, -36(%rbp)
	movl	$1398, -20(%rbp)
	jmp	.L108
.L111:
	movq	-80(%rbp), %rax
	movq	(%rax), %rax
	leaq	-1(%rax), %rdx
	movq	-80(%rbp), %rax
	movq	%rdx, (%rax)
	movq	-80(%rbp), %rax
	movq	(%rax), %rax
	testq	%rax, %rax
	jne	.L112
	movq	-80(%rbp), %rax
	movq	8(%rax), %rax
	movq	48(%rax), %rdx
	movq	-80(%rbp), %rax
	movq	%rax, %rdi
	call	*%rdx
.L112:
	movq	$0, -80(%rbp)
	movq	__pyx_n_s_denominator(%rip), %rdx
	movq	-112(%rbp), %rax
	movq	%rdx, %rsi
	movq	%rax, %rdi
	call	__Pyx_PyObject_GetAttrStr
	movq	%rax, -80(%rbp)
	cmpq	$0, -80(%rbp)
	sete	%al
	movzbl	%al, %eax
	testq	%rax, %rax
	je	.L113
	movq	__pyx_f(%rip), %rax
	movq	%rax, -32(%rbp)
	movl	$15, -36(%rbp)
	movl	$1400, -20(%rbp)
	jmp	.L108
.L113:
	movq	-80(%rbp), %rax
	movq	8(%rax), %rax
	cmpq	$PyFloat_Type, %rax
	sete	%al
	movzbl	%al, %eax
	testq	%rax, %rax
	je	.L114
	movq	-80(%rbp), %rax
	movq	16(%rax), %rax
	jmp	.L115
.L114:
	movq	-80(%rbp), %rax
	movq	%rax, %rdi
	call	__Pyx__PyObject_AsDouble
	movsd	%xmm0, -136(%rbp)
	movq	-136(%rbp), %rax
.L115:
	movq	%rax, -64(%rbp)
	movsd	.LC7(%rip), %xmm0
	ucomisd	-64(%rbp), %xmm0
	sete	%al
	setnp	%dl
	andl	%edx, %eax
	movzbl	%al, %eax
	testq	%rax, %rax
	je	.L116
	call	PyErr_Occurred
	testq	%rax, %rax
	setne	%al
	movzbl	%al, %eax
	testq	%rax, %rax
	je	.L116
	movq	__pyx_f(%rip), %rax
	movq	%rax, -32(%rbp)
	movl	$15, -36(%rbp)
	movl	$1402, -20(%rbp)
	jmp	.L108
.L116:
	movq	-80(%rbp), %rax
	movq	(%rax), %rax
	leaq	-1(%rax), %rdx
	movq	-80(%rbp), %rax
	movq	%rdx, (%rax)
	movq	-80(%rbp), %rax
	movq	(%rax), %rax
	testq	%rax, %rax
	jne	.L117
	movq	-80(%rbp), %rax
	movq	8(%rax), %rax
	movq	48(%rax), %rdx
	movq	-80(%rbp), %rax
	movq	%rax, %rdi
	call	*%rdx
.L117:
	movq	$0, -80(%rbp)
	xorpd	%xmm0, %xmm0
	ucomisd	-64(%rbp), %xmm0
	sete	%al
	setnp	%dl
	andl	%edx, %eax
	movzbl	%al, %eax
	testq	%rax, %rax
	je	.L118
	call	PyGILState_Ensure
	movl	%eax, -16(%rbp)
	movq	PyExc_ZeroDivisionError(%rip), %rax
	movl	$.LC9, %esi
	movq	%rax, %rdi
	call	PyErr_SetString
	movl	-16(%rbp), %eax
	movl	%eax, %edi
	call	PyGILState_Release
	movq	__pyx_f(%rip), %rax
	movq	%rax, -32(%rbp)
	movl	$15, -36(%rbp)
	movl	$1412, -20(%rbp)
	jmp	.L108
.L118:
	movq	__pyx_n_s_numerator(%rip), %rdx
	movq	-120(%rbp), %rax
	movq	%rdx, %rsi
	movq	%rax, %rdi
	call	__Pyx_PyObject_GetAttrStr
	movq	%rax, -80(%rbp)
	cmpq	$0, -80(%rbp)
	sete	%al
	movzbl	%al, %eax
	testq	%rax, %rax
	je	.L119
	movq	__pyx_f(%rip), %rax
	movq	%rax, -32(%rbp)
	movl	$15, -36(%rbp)
	movl	$1414, -20(%rbp)
	jmp	.L108
.L119:
	movq	-80(%rbp), %rax
	movq	8(%rax), %rax
	cmpq	$PyFloat_Type, %rax
	sete	%al
	movzbl	%al, %eax
	testq	%rax, %rax
	je	.L120
	movq	-80(%rbp), %rax
	movq	16(%rax), %rax
	jmp	.L121
.L120:
	movq	-80(%rbp), %rax
	movq	%rax, %rdi
	call	__Pyx__PyObject_AsDouble
	movsd	%xmm0, -136(%rbp)
	movq	-136(%rbp), %rax
.L121:
	movq	%rax, -56(%rbp)
	movsd	.LC7(%rip), %xmm0
	ucomisd	-56(%rbp), %xmm0
	sete	%al
	setnp	%dl
	andl	%edx, %eax
	movzbl	%al, %eax
	testq	%rax, %rax
	je	.L122
	call	PyErr_Occurred
	testq	%rax, %rax
	setne	%al
	movzbl	%al, %eax
	testq	%rax, %rax
	je	.L122
	movq	__pyx_f(%rip), %rax
	movq	%rax, -32(%rbp)
	movl	$15, -36(%rbp)
	movl	$1416, -20(%rbp)
	jmp	.L108
.L122:
	movq	-80(%rbp), %rax
	movq	(%rax), %rax
	leaq	-1(%rax), %rdx
	movq	-80(%rbp), %rax
	movq	%rdx, (%rax)
	movq	-80(%rbp), %rax
	movq	(%rax), %rax
	testq	%rax, %rax
	jne	.L123
	movq	-80(%rbp), %rax
	movq	8(%rax), %rax
	movq	48(%rax), %rdx
	movq	-80(%rbp), %rax
	movq	%rax, %rdi
	call	*%rdx
.L123:
	movq	$0, -80(%rbp)
	movq	__pyx_n_s_denominator(%rip), %rdx
	movq	-120(%rbp), %rax
	movq	%rdx, %rsi
	movq	%rax, %rdi
	call	__Pyx_PyObject_GetAttrStr
	movq	%rax, -80(%rbp)
	cmpq	$0, -80(%rbp)
	sete	%al
	movzbl	%al, %eax
	testq	%rax, %rax
	je	.L124
	movq	__pyx_f(%rip), %rax
	movq	%rax, -32(%rbp)
	movl	$15, -36(%rbp)
	movl	$1418, -20(%rbp)
	jmp	.L108
.L124:
	movq	-80(%rbp), %rax
	movq	8(%rax), %rax
	cmpq	$PyFloat_Type, %rax
	sete	%al
	movzbl	%al, %eax
	testq	%rax, %rax
	je	.L125
	movq	-80(%rbp), %rax
	movq	16(%rax), %rax
	jmp	.L126
.L125:
	movq	-80(%rbp), %rax
	movq	%rax, %rdi
	call	__Pyx__PyObject_AsDouble
	movsd	%xmm0, -136(%rbp)
	movq	-136(%rbp), %rax
.L126:
	movq	%rax, -48(%rbp)
	movsd	.LC7(%rip), %xmm0
	ucomisd	-48(%rbp), %xmm0
	sete	%al
	setnp	%dl
	andl	%edx, %eax
	movzbl	%al, %eax
	testq	%rax, %rax
	je	.L127
	call	PyErr_Occurred
	testq	%rax, %rax
	setne	%al
	movzbl	%al, %eax
	testq	%rax, %rax
	je	.L127
	movq	__pyx_f(%rip), %rax
	movq	%rax, -32(%rbp)
	movl	$15, -36(%rbp)
	movl	$1420, -20(%rbp)
	jmp	.L108
.L127:
	movq	-80(%rbp), %rax
	movq	(%rax), %rax
	leaq	-1(%rax), %rdx
	movq	-80(%rbp), %rax
	movq	%rdx, (%rax)
	movq	-80(%rbp), %rax
	movq	(%rax), %rax
	testq	%rax, %rax
	jne	.L128
	movq	-80(%rbp), %rax
	movq	8(%rax), %rax
	movq	48(%rax), %rdx
	movq	-80(%rbp), %rax
	movq	%rax, %rdi
	call	*%rdx
.L128:
	movq	$0, -80(%rbp)
	xorpd	%xmm0, %xmm0
	ucomisd	-48(%rbp), %xmm0
	sete	%al
	setnp	%dl
	andl	%edx, %eax
	movzbl	%al, %eax
	testq	%rax, %rax
	je	.L129
	call	PyGILState_Ensure
	movl	%eax, -12(%rbp)
	movq	PyExc_ZeroDivisionError(%rip), %rax
	movl	$.LC9, %esi
	movq	%rax, %rdi
	call	PyErr_SetString
	movl	-12(%rbp), %eax
	movl	%eax, %edi
	call	PyGILState_Release
	movq	__pyx_f(%rip), %rax
	movq	%rax, -32(%rbp)
	movl	$15, -36(%rbp)
	movl	$1430, -20(%rbp)
	jmp	.L108
.L129:
	movsd	-72(%rbp), %xmm0
	divsd	-64(%rbp), %xmm0
	movsd	-56(%rbp), %xmm1
	divsd	-48(%rbp), %xmm1
	ucomisd	%xmm1, %xmm0
	seta	%al
	movzbl	%al, %eax
	movl	%eax, -40(%rbp)
	cmpl	$0, -40(%rbp)
	je	.L130
	cmpq	$0, -88(%rbp)
	je	.L131
	movq	-88(%rbp), %rax
	movq	(%rax), %rax
	leaq	-1(%rax), %rdx
	movq	-88(%rbp), %rax
	movq	%rdx, (%rax)
	movq	-88(%rbp), %rax
	movq	(%rax), %rax
	testq	%rax, %rax
	jne	.L131
	movq	-88(%rbp), %rax
	movq	8(%rax), %rax
	movq	48(%rax), %rdx
	movq	-88(%rbp), %rax
	movq	%rax, %rdi
	call	*%rdx
.L131:
	movq	__pyx_int_1(%rip), %rax
	movq	(%rax), %rdx
	addq	$1, %rdx
	movq	%rdx, (%rax)
	movq	__pyx_int_1(%rip), %rax
	movq	%rax, -88(%rbp)
	jmp	.L132
.L130:
	movq	__pyx_n_s_numerator(%rip), %rdx
	movq	-112(%rbp), %rax
	movq	%rdx, %rsi
	movq	%rax, %rdi
	call	__Pyx_PyObject_GetAttrStr
	movq	%rax, -80(%rbp)
	cmpq	$0, -80(%rbp)
	sete	%al
	movzbl	%al, %eax
	testq	%rax, %rax
	je	.L133
	movq	__pyx_f(%rip), %rax
	movq	%rax, -32(%rbp)
	movl	$17, -36(%rbp)
	movl	$1455, -20(%rbp)
	jmp	.L108
.L133:
	movq	-80(%rbp), %rax
	movq	8(%rax), %rax
	cmpq	$PyFloat_Type, %rax
	sete	%al
	movzbl	%al, %eax
	testq	%rax, %rax
	je	.L134
	movq	-80(%rbp), %rax
	movq	16(%rax), %rax
	jmp	.L135
.L134:
	movq	-80(%rbp), %rax
	movq	%rax, %rdi
	call	__Pyx__PyObject_AsDouble
	movsd	%xmm0, -136(%rbp)
	movq	-136(%rbp), %rax
.L135:
	movq	%rax, -48(%rbp)
	movsd	.LC7(%rip), %xmm0
	ucomisd	-48(%rbp), %xmm0
	sete	%al
	setnp	%dl
	andl	%edx, %eax
	movzbl	%al, %eax
	testq	%rax, %rax
	je	.L136
	call	PyErr_Occurred
	testq	%rax, %rax
	setne	%al
	movzbl	%al, %eax
	testq	%rax, %rax
	je	.L136
	movq	__pyx_f(%rip), %rax
	movq	%rax, -32(%rbp)
	movl	$17, -36(%rbp)
	movl	$1457, -20(%rbp)
	jmp	.L108
.L136:
	movq	-80(%rbp), %rax
	movq	(%rax), %rax
	leaq	-1(%rax), %rdx
	movq	-80(%rbp), %rax
	movq	%rdx, (%rax)
	movq	-80(%rbp), %rax
	movq	(%rax), %rax
	testq	%rax, %rax
	jne	.L137
	movq	-80(%rbp), %rax
	movq	8(%rax), %rax
	movq	48(%rax), %rdx
	movq	-80(%rbp), %rax
	movq	%rax, %rdi
	call	*%rdx
.L137:
	movq	$0, -80(%rbp)
	movq	__pyx_n_s_denominator(%rip), %rdx
	movq	-112(%rbp), %rax
	movq	%rdx, %rsi
	movq	%rax, %rdi
	call	__Pyx_PyObject_GetAttrStr
	movq	%rax, -80(%rbp)
	cmpq	$0, -80(%rbp)
	sete	%al
	movzbl	%al, %eax
	testq	%rax, %rax
	je	.L138
	movq	__pyx_f(%rip), %rax
	movq	%rax, -32(%rbp)
	movl	$17, -36(%rbp)
	movl	$1459, -20(%rbp)
	jmp	.L108
.L138:
	movq	-80(%rbp), %rax
	movq	8(%rax), %rax
	cmpq	$PyFloat_Type, %rax
	sete	%al
	movzbl	%al, %eax
	testq	%rax, %rax
	je	.L139
	movq	-80(%rbp), %rax
	movq	16(%rax), %rax
	jmp	.L140
.L139:
	movq	-80(%rbp), %rax
	movq	%rax, %rdi
	call	__Pyx__PyObject_AsDouble
	movsd	%xmm0, -136(%rbp)
	movq	-136(%rbp), %rax
.L140:
	movq	%rax, -56(%rbp)
	movsd	.LC7(%rip), %xmm0
	ucomisd	-56(%rbp), %xmm0
	sete	%al
	setnp	%dl
	andl	%edx, %eax
	movzbl	%al, %eax
	testq	%rax, %rax
	je	.L141
	call	PyErr_Occurred
	testq	%rax, %rax
	setne	%al
	movzbl	%al, %eax
	testq	%rax, %rax
	je	.L141
	movq	__pyx_f(%rip), %rax
	movq	%rax, -32(%rbp)
	movl	$17, -36(%rbp)
	movl	$1461, -20(%rbp)
	jmp	.L108
.L141:
	movq	-80(%rbp), %rax
	movq	(%rax), %rax
	leaq	-1(%rax), %rdx
	movq	-80(%rbp), %rax
	movq	%rdx, (%rax)
	movq	-80(%rbp), %rax
	movq	(%rax), %rax
	testq	%rax, %rax
	jne	.L142
	movq	-80(%rbp), %rax
	movq	8(%rax), %rax
	movq	48(%rax), %rdx
	movq	-80(%rbp), %rax
	movq	%rax, %rdi
	call	*%rdx
.L142:
	movq	$0, -80(%rbp)
	xorpd	%xmm0, %xmm0
	ucomisd	-56(%rbp), %xmm0
	sete	%al
	setnp	%dl
	andl	%edx, %eax
	movzbl	%al, %eax
	testq	%rax, %rax
	je	.L143
	call	PyGILState_Ensure
	movl	%eax, -8(%rbp)
	movq	PyExc_ZeroDivisionError(%rip), %rax
	movl	$.LC9, %esi
	movq	%rax, %rdi
	call	PyErr_SetString
	movl	-8(%rbp), %eax
	movl	%eax, %edi
	call	PyGILState_Release
	movq	__pyx_f(%rip), %rax
	movq	%rax, -32(%rbp)
	movl	$17, -36(%rbp)
	movl	$1471, -20(%rbp)
	jmp	.L108
.L143:
	movq	__pyx_n_s_numerator(%rip), %rdx
	movq	-120(%rbp), %rax
	movq	%rdx, %rsi
	movq	%rax, %rdi
	call	__Pyx_PyObject_GetAttrStr
	movq	%rax, -80(%rbp)
	cmpq	$0, -80(%rbp)
	sete	%al
	movzbl	%al, %eax
	testq	%rax, %rax
	je	.L144
	movq	__pyx_f(%rip), %rax
	movq	%rax, -32(%rbp)
	movl	$17, -36(%rbp)
	movl	$1473, -20(%rbp)
	jmp	.L108
.L144:
	movq	-80(%rbp), %rax
	movq	8(%rax), %rax
	cmpq	$PyFloat_Type, %rax
	sete	%al
	movzbl	%al, %eax
	testq	%rax, %rax
	je	.L145
	movq	-80(%rbp), %rax
	movq	16(%rax), %rax
	jmp	.L146
.L145:
	movq	-80(%rbp), %rax
	movq	%rax, %rdi
	call	__Pyx__PyObject_AsDouble
	movsd	%xmm0, -136(%rbp)
	movq	-136(%rbp), %rax
.L146:
	movq	%rax, -64(%rbp)
	movsd	.LC7(%rip), %xmm0
	ucomisd	-64(%rbp), %xmm0
	sete	%al
	setnp	%dl
	andl	%edx, %eax
	movzbl	%al, %eax
	testq	%rax, %rax
	je	.L147
	call	PyErr_Occurred
	testq	%rax, %rax
	setne	%al
	movzbl	%al, %eax
	testq	%rax, %rax
	je	.L147
	movq	__pyx_f(%rip), %rax
	movq	%rax, -32(%rbp)
	movl	$17, -36(%rbp)
	movl	$1475, -20(%rbp)
	jmp	.L108
.L147:
	movq	-80(%rbp), %rax
	movq	(%rax), %rax
	leaq	-1(%rax), %rdx
	movq	-80(%rbp), %rax
	movq	%rdx, (%rax)
	movq	-80(%rbp), %rax
	movq	(%rax), %rax
	testq	%rax, %rax
	jne	.L148
	movq	-80(%rbp), %rax
	movq	8(%rax), %rax
	movq	48(%rax), %rdx
	movq	-80(%rbp), %rax
	movq	%rax, %rdi
	call	*%rdx
.L148:
	movq	$0, -80(%rbp)
	movq	__pyx_n_s_denominator(%rip), %rdx
	movq	-120(%rbp), %rax
	movq	%rdx, %rsi
	movq	%rax, %rdi
	call	__Pyx_PyObject_GetAttrStr
	movq	%rax, -80(%rbp)
	cmpq	$0, -80(%rbp)
	sete	%al
	movzbl	%al, %eax
	testq	%rax, %rax
	je	.L149
	movq	__pyx_f(%rip), %rax
	movq	%rax, -32(%rbp)
	movl	$17, -36(%rbp)
	movl	$1477, -20(%rbp)
	jmp	.L108
.L149:
	movq	-80(%rbp), %rax
	movq	8(%rax), %rax
	cmpq	$PyFloat_Type, %rax
	sete	%al
	movzbl	%al, %eax
	testq	%rax, %rax
	je	.L150
	movq	-80(%rbp), %rax
	movq	16(%rax), %rax
	jmp	.L151
.L150:
	movq	-80(%rbp), %rax
	movq	%rax, %rdi
	call	__Pyx__PyObject_AsDouble
	movsd	%xmm0, -136(%rbp)
	movq	-136(%rbp), %rax
.L151:
	movq	%rax, -72(%rbp)
	movsd	.LC7(%rip), %xmm0
	ucomisd	-72(%rbp), %xmm0
	sete	%al
	setnp	%dl
	andl	%edx, %eax
	movzbl	%al, %eax
	testq	%rax, %rax
	je	.L152
	call	PyErr_Occurred
	testq	%rax, %rax
	setne	%al
	movzbl	%al, %eax
	testq	%rax, %rax
	je	.L152
	movq	__pyx_f(%rip), %rax
	movq	%rax, -32(%rbp)
	movl	$17, -36(%rbp)
	movl	$1479, -20(%rbp)
	jmp	.L108
.L152:
	movq	-80(%rbp), %rax
	movq	(%rax), %rax
	leaq	-1(%rax), %rdx
	movq	-80(%rbp), %rax
	movq	%rdx, (%rax)
	movq	-80(%rbp), %rax
	movq	(%rax), %rax
	testq	%rax, %rax
	jne	.L153
	movq	-80(%rbp), %rax
	movq	8(%rax), %rax
	movq	48(%rax), %rdx
	movq	-80(%rbp), %rax
	movq	%rax, %rdi
	call	*%rdx
.L153:
	movq	$0, -80(%rbp)
	xorpd	%xmm0, %xmm0
	ucomisd	-72(%rbp), %xmm0
	sete	%al
	setnp	%dl
	andl	%edx, %eax
	movzbl	%al, %eax
	testq	%rax, %rax
	je	.L154
	call	PyGILState_Ensure
	movl	%eax, -4(%rbp)
	movq	PyExc_ZeroDivisionError(%rip), %rax
	movl	$.LC9, %esi
	movq	%rax, %rdi
	call	PyErr_SetString
	movl	-4(%rbp), %eax
	movl	%eax, %edi
	call	PyGILState_Release
	movq	__pyx_f(%rip), %rax
	movq	%rax, -32(%rbp)
	movl	$17, -36(%rbp)
	movl	$1489, -20(%rbp)
	jmp	.L108
.L154:
	movsd	-48(%rbp), %xmm0
	divsd	-56(%rbp), %xmm0
	movsd	-64(%rbp), %xmm1
	divsd	-72(%rbp), %xmm1
	ucomisd	%xmm1, %xmm0
	sete	%al
	setnp	%dl
	andl	%edx, %eax
	movzbl	%al, %eax
	movl	%eax, -40(%rbp)
	cmpl	$0, -40(%rbp)
	je	.L155
	cmpq	$0, -88(%rbp)
	je	.L156
	movq	-88(%rbp), %rax
	movq	(%rax), %rax
	leaq	-1(%rax), %rdx
	movq	-88(%rbp), %rax
	movq	%rdx, (%rax)
	movq	-88(%rbp), %rax
	movq	(%rax), %rax
	testq	%rax, %rax
	jne	.L156
	movq	-88(%rbp), %rax
	movq	8(%rax), %rax
	movq	48(%rax), %rdx
	movq	-88(%rbp), %rax
	movq	%rax, %rdi
	call	*%rdx
.L156:
	movq	__pyx_int_0(%rip), %rax
	movq	(%rax), %rdx
	addq	$1, %rdx
	movq	%rdx, (%rax)
	movq	__pyx_int_0(%rip), %rax
	movq	%rax, -88(%rbp)
	jmp	.L132
.L155:
	cmpq	$0, -88(%rbp)
	je	.L157
	movq	-88(%rbp), %rax
	movq	(%rax), %rax
	leaq	-1(%rax), %rdx
	movq	-88(%rbp), %rax
	movq	%rdx, (%rax)
	movq	-88(%rbp), %rax
	movq	(%rax), %rax
	testq	%rax, %rax
	jne	.L157
	movq	-88(%rbp), %rax
	movq	8(%rax), %rax
	movq	48(%rax), %rdx
	movq	-88(%rbp), %rax
	movq	%rax, %rdi
	call	*%rdx
.L157:
	movq	__pyx_int_neg_1(%rip), %rax
	movq	(%rax), %rdx
	addq	$1, %rdx
	movq	%rdx, (%rax)
	movq	__pyx_int_neg_1(%rip), %rax
	movq	%rax, -88(%rbp)
	jmp	.L132
.L108:
	cmpq	$0, -80(%rbp)
	je	.L158
	movq	-80(%rbp), %rax
	movq	(%rax), %rax
	leaq	-1(%rax), %rdx
	movq	-80(%rbp), %rax
	movq	%rdx, (%rax)
	movq	-80(%rbp), %rax
	movq	(%rax), %rax
	testq	%rax, %rax
	jne	.L158
	movq	-80(%rbp), %rax
	movq	8(%rax), %rax
	movq	48(%rax), %rdx
	movq	-80(%rbp), %rax
	movq	%rax, %rdi
	call	*%rdx
.L158:
	movq	-32(%rbp), %rcx
	movl	-36(%rbp), %edx
	movl	-20(%rbp), %eax
	movl	%eax, %esi
	movl	$.LC6, %edi
	call	__Pyx_AddTraceback
	movq	$0, -88(%rbp)
.L132:
	movq	-88(%rbp), %rax
	leave
	.cfi_def_cfa 7, 8
	ret
	.cfi_endproc
.LFE10:
	.size	__pyx_pf_8friedman_8Fraction_2__cmp__, .-__pyx_pf_8friedman_8Fraction_2__cmp__
	.section	.rodata
.LC10:
	.string	"__str__"
	.data
	.align 32
	.type	__pyx_mdef_8friedman_8Fraction_5__str__, @object
	.size	__pyx_mdef_8friedman_8Fraction_5__str__, 32
__pyx_mdef_8friedman_8Fraction_5__str__:
	.quad	.LC10
	.quad	__pyx_pw_8friedman_8Fraction_5__str__
	.long	8
	.zero	4
	.quad	0
	.text
	.type	__pyx_pw_8friedman_8Fraction_5__str__, @function
__pyx_pw_8friedman_8Fraction_5__str__:
.LFB11:
	.cfi_startproc
	pushq	%rbp
	.cfi_def_cfa_offset 16
	.cfi_offset 6, -16
	movq	%rsp, %rbp
	.cfi_def_cfa_register 6
	subq	$32, %rsp
	movq	%rdi, -24(%rbp)
	movq	%rsi, -32(%rbp)
	movq	$0, -8(%rbp)
	movq	-32(%rbp), %rdx
	movq	-24(%rbp), %rax
	movq	%rdx, %rsi
	movq	%rax, %rdi
	call	__pyx_pf_8friedman_8Fraction_4__str__
	movq	%rax, -8(%rbp)
	movq	-8(%rbp), %rax
	leave
	.cfi_def_cfa 7, 8
	ret
	.cfi_endproc
.LFE11:
	.size	__pyx_pw_8friedman_8Fraction_5__str__, .-__pyx_pw_8friedman_8Fraction_5__str__
	.section	.rodata
.LC11:
	.string	"friedman.Fraction.__str__"
	.text
	.type	__pyx_pf_8friedman_8Fraction_4__str__, @function
__pyx_pf_8friedman_8Fraction_4__str__:
.LFB12:
	.cfi_startproc
	pushq	%rbp
	.cfi_def_cfa_offset 16
	.cfi_offset 6, -16
	movq	%rsp, %rbp
	.cfi_def_cfa_register 6
	subq	$80, %rsp
	movq	%rdi, -72(%rbp)
	movq	%rsi, -80(%rbp)
	movq	$0, -56(%rbp)
	movq	$0, -48(%rbp)
	movq	$0, -40(%rbp)
	movq	$0, -32(%rbp)
	movl	$0, -20(%rbp)
	movq	$0, -16(%rbp)
	movl	$0, -4(%rbp)
	cmpq	$0, -56(%rbp)
	je	.L163
	movq	-56(%rbp), %rax
	movq	(%rax), %rax
	leaq	-1(%rax), %rdx
	movq	-56(%rbp), %rax
	movq	%rdx, (%rax)
	movq	-56(%rbp), %rax
	movq	(%rax), %rax
	testq	%rax, %rax
	jne	.L163
	movq	-56(%rbp), %rax
	movq	8(%rax), %rax
	movq	48(%rax), %rdx
	movq	-56(%rbp), %rax
	movq	%rax, %rdi
	call	*%rdx
.L163:
	movq	__pyx_n_s_numerator(%rip), %rdx
	movq	-80(%rbp), %rax
	movq	%rdx, %rsi
	movq	%rax, %rdi
	call	__Pyx_PyObject_GetAttrStr
	movq	%rax, -48(%rbp)
	cmpq	$0, -48(%rbp)
	sete	%al
	movzbl	%al, %eax
	testq	%rax, %rax
	je	.L164
	movq	__pyx_f(%rip), %rax
	movq	%rax, -16(%rbp)
	movl	$23, -20(%rbp)
	movl	$1581, -4(%rbp)
	jmp	.L165
.L164:
	movl	$1, %edi
	call	PyTuple_New
	movq	%rax, -40(%rbp)
	cmpq	$0, -40(%rbp)
	sete	%al
	movzbl	%al, %eax
	testq	%rax, %rax
	je	.L166
	movq	__pyx_f(%rip), %rax
	movq	%rax, -16(%rbp)
	movl	$23, -20(%rbp)
	movl	$1583, -4(%rbp)
	jmp	.L165
.L166:
	movq	-40(%rbp), %rax
	movq	-48(%rbp), %rdx
	movq	%rdx, 24(%rax)
	movq	$0, -48(%rbp)
	movl	$PyString_Type, %eax
	movq	-40(%rbp), %rcx
	movl	$0, %edx
	movq	%rcx, %rsi
	movq	%rax, %rdi
	call	__Pyx_PyObject_Call
	movq	%rax, -48(%rbp)
	cmpq	$0, -48(%rbp)
	sete	%al
	movzbl	%al, %eax
	testq	%rax, %rax
	je	.L167
	movq	__pyx_f(%rip), %rax
	movq	%rax, -16(%rbp)
	movl	$23, -20(%rbp)
	movl	$1588, -4(%rbp)
	jmp	.L165
.L167:
	movq	-40(%rbp), %rax
	movq	(%rax), %rax
	leaq	-1(%rax), %rdx
	movq	-40(%rbp), %rax
	movq	%rdx, (%rax)
	movq	-40(%rbp), %rax
	movq	(%rax), %rax
	testq	%rax, %rax
	jne	.L168
	movq	-40(%rbp), %rax
	movq	8(%rax), %rax
	movq	48(%rax), %rdx
	movq	-40(%rbp), %rax
	movq	%rax, %rdi
	call	*%rdx
.L168:
	movq	$0, -40(%rbp)
	movq	__pyx_kp_s_(%rip), %rdx
	movq	-48(%rbp), %rax
	movq	%rdx, %rsi
	movq	%rax, %rdi
	call	PyNumber_Add
	movq	%rax, -40(%rbp)
	cmpq	$0, -40(%rbp)
	sete	%al
	movzbl	%al, %eax
	testq	%rax, %rax
	je	.L169
	movq	__pyx_f(%rip), %rax
	movq	%rax, -16(%rbp)
	movl	$23, -20(%rbp)
	movl	$1591, -4(%rbp)
	jmp	.L165
.L169:
	movq	-48(%rbp), %rax
	movq	(%rax), %rax
	leaq	-1(%rax), %rdx
	movq	-48(%rbp), %rax
	movq	%rdx, (%rax)
	movq	-48(%rbp), %rax
	movq	(%rax), %rax
	testq	%rax, %rax
	jne	.L170
	movq	-48(%rbp), %rax
	movq	8(%rax), %rax
	movq	48(%rax), %rdx
	movq	-48(%rbp), %rax
	movq	%rax, %rdi
	call	*%rdx
.L170:
	movq	$0, -48(%rbp)
	movq	__pyx_n_s_denominator(%rip), %rdx
	movq	-80(%rbp), %rax
	movq	%rdx, %rsi
	movq	%rax, %rdi
	call	__Pyx_PyObject_GetAttrStr
	movq	%rax, -48(%rbp)
	cmpq	$0, -48(%rbp)
	sete	%al
	movzbl	%al, %eax
	testq	%rax, %rax
	je	.L171
	movq	__pyx_f(%rip), %rax
	movq	%rax, -16(%rbp)
	movl	$23, -20(%rbp)
	movl	$1594, -4(%rbp)
	jmp	.L165
.L171:
	movl	$1, %edi
	call	PyTuple_New
	movq	%rax, -32(%rbp)
	cmpq	$0, -32(%rbp)
	sete	%al
	movzbl	%al, %eax
	testq	%rax, %rax
	je	.L172
	movq	__pyx_f(%rip), %rax
	movq	%rax, -16(%rbp)
	movl	$23, -20(%rbp)
	movl	$1596, -4(%rbp)
	jmp	.L165
.L172:
	movq	-32(%rbp), %rax
	movq	-48(%rbp), %rdx
	movq	%rdx, 24(%rax)
	movq	$0, -48(%rbp)
	movl	$PyString_Type, %eax
	movq	-32(%rbp), %rcx
	movl	$0, %edx
	movq	%rcx, %rsi
	movq	%rax, %rdi
	call	__Pyx_PyObject_Call
	movq	%rax, -48(%rbp)
	cmpq	$0, -48(%rbp)
	sete	%al
	movzbl	%al, %eax
	testq	%rax, %rax
	je	.L173
	movq	__pyx_f(%rip), %rax
	movq	%rax, -16(%rbp)
	movl	$23, -20(%rbp)
	movl	$1601, -4(%rbp)
	jmp	.L165
.L173:
	movq	-32(%rbp), %rax
	movq	(%rax), %rax
	leaq	-1(%rax), %rdx
	movq	-32(%rbp), %rax
	movq	%rdx, (%rax)
	movq	-32(%rbp), %rax
	movq	(%rax), %rax
	testq	%rax, %rax
	jne	.L174
	movq	-32(%rbp), %rax
	movq	8(%rax), %rax
	movq	48(%rax), %rdx
	movq	-32(%rbp), %rax
	movq	%rax, %rdi
	call	*%rdx
.L174:
	movq	$0, -32(%rbp)
	movq	-48(%rbp), %rdx
	movq	-40(%rbp), %rax
	movq	%rdx, %rsi
	movq	%rax, %rdi
	call	PyNumber_Add
	movq	%rax, -32(%rbp)
	cmpq	$0, -32(%rbp)
	sete	%al
	movzbl	%al, %eax
	testq	%rax, %rax
	je	.L175
	movq	__pyx_f(%rip), %rax
	movq	%rax, -16(%rbp)
	movl	$23, -20(%rbp)
	movl	$1604, -4(%rbp)
	jmp	.L165
.L175:
	movq	-40(%rbp), %rax
	movq	(%rax), %rax
	leaq	-1(%rax), %rdx
	movq	-40(%rbp), %rax
	movq	%rdx, (%rax)
	movq	-40(%rbp), %rax
	movq	(%rax), %rax
	testq	%rax, %rax
	jne	.L176
	movq	-40(%rbp), %rax
	movq	8(%rax), %rax
	movq	48(%rax), %rdx
	movq	-40(%rbp), %rax
	movq	%rax, %rdi
	call	*%rdx
.L176:
	movq	$0, -40(%rbp)
	movq	-48(%rbp), %rax
	movq	(%rax), %rax
	leaq	-1(%rax), %rdx
	movq	-48(%rbp), %rax
	movq	%rdx, (%rax)
	movq	-48(%rbp), %rax
	movq	(%rax), %rax
	testq	%rax, %rax
	jne	.L177
	movq	-48(%rbp), %rax
	movq	8(%rax), %rax
	movq	48(%rax), %rdx
	movq	-48(%rbp), %rax
	movq	%rax, %rdi
	call	*%rdx
.L177:
	movq	$0, -48(%rbp)
	movq	-32(%rbp), %rax
	movq	%rax, -56(%rbp)
	movq	$0, -32(%rbp)
	jmp	.L178
.L165:
	cmpq	$0, -48(%rbp)
	je	.L179
	movq	-48(%rbp), %rax
	movq	(%rax), %rax
	leaq	-1(%rax), %rdx
	movq	-48(%rbp), %rax
	movq	%rdx, (%rax)
	movq	-48(%rbp), %rax
	movq	(%rax), %rax
	testq	%rax, %rax
	jne	.L179
	movq	-48(%rbp), %rax
	movq	8(%rax), %rax
	movq	48(%rax), %rdx
	movq	-48(%rbp), %rax
	movq	%rax, %rdi
	call	*%rdx
.L179:
	cmpq	$0, -40(%rbp)
	je	.L180
	movq	-40(%rbp), %rax
	movq	(%rax), %rax
	leaq	-1(%rax), %rdx
	movq	-40(%rbp), %rax
	movq	%rdx, (%rax)
	movq	-40(%rbp), %rax
	movq	(%rax), %rax
	testq	%rax, %rax
	jne	.L180
	movq	-40(%rbp), %rax
	movq	8(%rax), %rax
	movq	48(%rax), %rdx
	movq	-40(%rbp), %rax
	movq	%rax, %rdi
	call	*%rdx
.L180:
	cmpq	$0, -32(%rbp)
	je	.L181
	movq	-32(%rbp), %rax
	movq	(%rax), %rax
	leaq	-1(%rax), %rdx
	movq	-32(%rbp), %rax
	movq	%rdx, (%rax)
	movq	-32(%rbp), %rax
	movq	(%rax), %rax
	testq	%rax, %rax
	jne	.L181
	movq	-32(%rbp), %rax
	movq	8(%rax), %rax
	movq	48(%rax), %rdx
	movq	-32(%rbp), %rax
	movq	%rax, %rdi
	call	*%rdx
.L181:
	movq	-16(%rbp), %rcx
	movl	-20(%rbp), %edx
	movl	-4(%rbp), %eax
	movl	%eax, %esi
	movl	$.LC11, %edi
	call	__Pyx_AddTraceback
	movq	$0, -56(%rbp)
.L178:
	movq	-56(%rbp), %rax
	leave
	.cfi_def_cfa 7, 8
	ret
	.cfi_endproc
.LFE12:
	.size	__pyx_pf_8friedman_8Fraction_4__str__, .-__pyx_pf_8friedman_8Fraction_4__str__
	.section	.rodata
.LC12:
	.string	"__repr__"
	.data
	.align 32
	.type	__pyx_mdef_8friedman_8Fraction_7__repr__, @object
	.size	__pyx_mdef_8friedman_8Fraction_7__repr__, 32
__pyx_mdef_8friedman_8Fraction_7__repr__:
	.quad	.LC12
	.quad	__pyx_pw_8friedman_8Fraction_7__repr__
	.long	8
	.zero	4
	.quad	0
	.text
	.type	__pyx_pw_8friedman_8Fraction_7__repr__, @function
__pyx_pw_8friedman_8Fraction_7__repr__:
.LFB13:
	.cfi_startproc
	pushq	%rbp
	.cfi_def_cfa_offset 16
	.cfi_offset 6, -16
	movq	%rsp, %rbp
	.cfi_def_cfa_register 6
	subq	$32, %rsp
	movq	%rdi, -24(%rbp)
	movq	%rsi, -32(%rbp)
	movq	$0, -8(%rbp)
	movq	-32(%rbp), %rdx
	movq	-24(%rbp), %rax
	movq	%rdx, %rsi
	movq	%rax, %rdi
	call	__pyx_pf_8friedman_8Fraction_6__repr__
	movq	%rax, -8(%rbp)
	movq	-8(%rbp), %rax
	leave
	.cfi_def_cfa 7, 8
	ret
	.cfi_endproc
.LFE13:
	.size	__pyx_pw_8friedman_8Fraction_7__repr__, .-__pyx_pw_8friedman_8Fraction_7__repr__
	.section	.rodata
.LC13:
	.string	"friedman.Fraction.__repr__"
	.text
	.type	__pyx_pf_8friedman_8Fraction_6__repr__, @function
__pyx_pf_8friedman_8Fraction_6__repr__:
.LFB14:
	.cfi_startproc
	pushq	%rbp
	.cfi_def_cfa_offset 16
	.cfi_offset 6, -16
	movq	%rsp, %rbp
	.cfi_def_cfa_register 6
	subq	$80, %rsp
	movq	%rdi, -72(%rbp)
	movq	%rsi, -80(%rbp)
	movq	$0, -56(%rbp)
	movq	$0, -48(%rbp)
	movq	$0, -40(%rbp)
	movq	$0, -32(%rbp)
	movl	$0, -20(%rbp)
	movq	$0, -16(%rbp)
	movl	$0, -4(%rbp)
	cmpq	$0, -56(%rbp)
	je	.L186
	movq	-56(%rbp), %rax
	movq	(%rax), %rax
	leaq	-1(%rax), %rdx
	movq	-56(%rbp), %rax
	movq	%rdx, (%rax)
	movq	-56(%rbp), %rax
	movq	(%rax), %rax
	testq	%rax, %rax
	jne	.L186
	movq	-56(%rbp), %rax
	movq	8(%rax), %rax
	movq	48(%rax), %rdx
	movq	-56(%rbp), %rax
	movq	%rax, %rdi
	call	*%rdx
.L186:
	movq	__pyx_n_s_numerator(%rip), %rdx
	movq	-80(%rbp), %rax
	movq	%rdx, %rsi
	movq	%rax, %rdi
	call	__Pyx_PyObject_GetAttrStr
	movq	%rax, -48(%rbp)
	cmpq	$0, -48(%rbp)
	sete	%al
	movzbl	%al, %eax
	testq	%rax, %rax
	je	.L187
	movq	__pyx_f(%rip), %rax
	movq	%rax, -16(%rbp)
	movl	$26, -20(%rbp)
	movl	$1674, -4(%rbp)
	jmp	.L188
.L187:
	movl	$1, %edi
	call	PyTuple_New
	movq	%rax, -40(%rbp)
	cmpq	$0, -40(%rbp)
	sete	%al
	movzbl	%al, %eax
	testq	%rax, %rax
	je	.L189
	movq	__pyx_f(%rip), %rax
	movq	%rax, -16(%rbp)
	movl	$26, -20(%rbp)
	movl	$1676, -4(%rbp)
	jmp	.L188
.L189:
	movq	-40(%rbp), %rax
	movq	-48(%rbp), %rdx
	movq	%rdx, 24(%rax)
	movq	$0, -48(%rbp)
	movl	$PyString_Type, %eax
	movq	-40(%rbp), %rcx
	movl	$0, %edx
	movq	%rcx, %rsi
	movq	%rax, %rdi
	call	__Pyx_PyObject_Call
	movq	%rax, -48(%rbp)
	cmpq	$0, -48(%rbp)
	sete	%al
	movzbl	%al, %eax
	testq	%rax, %rax
	je	.L190
	movq	__pyx_f(%rip), %rax
	movq	%rax, -16(%rbp)
	movl	$26, -20(%rbp)
	movl	$1681, -4(%rbp)
	jmp	.L188
.L190:
	movq	-40(%rbp), %rax
	movq	(%rax), %rax
	leaq	-1(%rax), %rdx
	movq	-40(%rbp), %rax
	movq	%rdx, (%rax)
	movq	-40(%rbp), %rax
	movq	(%rax), %rax
	testq	%rax, %rax
	jne	.L191
	movq	-40(%rbp), %rax
	movq	8(%rax), %rax
	movq	48(%rax), %rdx
	movq	-40(%rbp), %rax
	movq	%rax, %rdi
	call	*%rdx
.L191:
	movq	$0, -40(%rbp)
	movq	__pyx_kp_s_(%rip), %rdx
	movq	-48(%rbp), %rax
	movq	%rdx, %rsi
	movq	%rax, %rdi
	call	PyNumber_Add
	movq	%rax, -40(%rbp)
	cmpq	$0, -40(%rbp)
	sete	%al
	movzbl	%al, %eax
	testq	%rax, %rax
	je	.L192
	movq	__pyx_f(%rip), %rax
	movq	%rax, -16(%rbp)
	movl	$26, -20(%rbp)
	movl	$1684, -4(%rbp)
	jmp	.L188
.L192:
	movq	-48(%rbp), %rax
	movq	(%rax), %rax
	leaq	-1(%rax), %rdx
	movq	-48(%rbp), %rax
	movq	%rdx, (%rax)
	movq	-48(%rbp), %rax
	movq	(%rax), %rax
	testq	%rax, %rax
	jne	.L193
	movq	-48(%rbp), %rax
	movq	8(%rax), %rax
	movq	48(%rax), %rdx
	movq	-48(%rbp), %rax
	movq	%rax, %rdi
	call	*%rdx
.L193:
	movq	$0, -48(%rbp)
	movq	__pyx_n_s_denominator(%rip), %rdx
	movq	-80(%rbp), %rax
	movq	%rdx, %rsi
	movq	%rax, %rdi
	call	__Pyx_PyObject_GetAttrStr
	movq	%rax, -48(%rbp)
	cmpq	$0, -48(%rbp)
	sete	%al
	movzbl	%al, %eax
	testq	%rax, %rax
	je	.L194
	movq	__pyx_f(%rip), %rax
	movq	%rax, -16(%rbp)
	movl	$26, -20(%rbp)
	movl	$1687, -4(%rbp)
	jmp	.L188
.L194:
	movl	$1, %edi
	call	PyTuple_New
	movq	%rax, -32(%rbp)
	cmpq	$0, -32(%rbp)
	sete	%al
	movzbl	%al, %eax
	testq	%rax, %rax
	je	.L195
	movq	__pyx_f(%rip), %rax
	movq	%rax, -16(%rbp)
	movl	$26, -20(%rbp)
	movl	$1689, -4(%rbp)
	jmp	.L188
.L195:
	movq	-32(%rbp), %rax
	movq	-48(%rbp), %rdx
	movq	%rdx, 24(%rax)
	movq	$0, -48(%rbp)
	movl	$PyString_Type, %eax
	movq	-32(%rbp), %rcx
	movl	$0, %edx
	movq	%rcx, %rsi
	movq	%rax, %rdi
	call	__Pyx_PyObject_Call
	movq	%rax, -48(%rbp)
	cmpq	$0, -48(%rbp)
	sete	%al
	movzbl	%al, %eax
	testq	%rax, %rax
	je	.L196
	movq	__pyx_f(%rip), %rax
	movq	%rax, -16(%rbp)
	movl	$26, -20(%rbp)
	movl	$1694, -4(%rbp)
	jmp	.L188
.L196:
	movq	-32(%rbp), %rax
	movq	(%rax), %rax
	leaq	-1(%rax), %rdx
	movq	-32(%rbp), %rax
	movq	%rdx, (%rax)
	movq	-32(%rbp), %rax
	movq	(%rax), %rax
	testq	%rax, %rax
	jne	.L197
	movq	-32(%rbp), %rax
	movq	8(%rax), %rax
	movq	48(%rax), %rdx
	movq	-32(%rbp), %rax
	movq	%rax, %rdi
	call	*%rdx
.L197:
	movq	$0, -32(%rbp)
	movq	-48(%rbp), %rdx
	movq	-40(%rbp), %rax
	movq	%rdx, %rsi
	movq	%rax, %rdi
	call	PyNumber_Add
	movq	%rax, -32(%rbp)
	cmpq	$0, -32(%rbp)
	sete	%al
	movzbl	%al, %eax
	testq	%rax, %rax
	je	.L198
	movq	__pyx_f(%rip), %rax
	movq	%rax, -16(%rbp)
	movl	$26, -20(%rbp)
	movl	$1697, -4(%rbp)
	jmp	.L188
.L198:
	movq	-40(%rbp), %rax
	movq	(%rax), %rax
	leaq	-1(%rax), %rdx
	movq	-40(%rbp), %rax
	movq	%rdx, (%rax)
	movq	-40(%rbp), %rax
	movq	(%rax), %rax
	testq	%rax, %rax
	jne	.L199
	movq	-40(%rbp), %rax
	movq	8(%rax), %rax
	movq	48(%rax), %rdx
	movq	-40(%rbp), %rax
	movq	%rax, %rdi
	call	*%rdx
.L199:
	movq	$0, -40(%rbp)
	movq	-48(%rbp), %rax
	movq	(%rax), %rax
	leaq	-1(%rax), %rdx
	movq	-48(%rbp), %rax
	movq	%rdx, (%rax)
	movq	-48(%rbp), %rax
	movq	(%rax), %rax
	testq	%rax, %rax
	jne	.L200
	movq	-48(%rbp), %rax
	movq	8(%rax), %rax
	movq	48(%rax), %rdx
	movq	-48(%rbp), %rax
	movq	%rax, %rdi
	call	*%rdx
.L200:
	movq	$0, -48(%rbp)
	movq	-32(%rbp), %rax
	movq	%rax, -56(%rbp)
	movq	$0, -32(%rbp)
	jmp	.L201
.L188:
	cmpq	$0, -48(%rbp)
	je	.L202
	movq	-48(%rbp), %rax
	movq	(%rax), %rax
	leaq	-1(%rax), %rdx
	movq	-48(%rbp), %rax
	movq	%rdx, (%rax)
	movq	-48(%rbp), %rax
	movq	(%rax), %rax
	testq	%rax, %rax
	jne	.L202
	movq	-48(%rbp), %rax
	movq	8(%rax), %rax
	movq	48(%rax), %rdx
	movq	-48(%rbp), %rax
	movq	%rax, %rdi
	call	*%rdx
.L202:
	cmpq	$0, -40(%rbp)
	je	.L203
	movq	-40(%rbp), %rax
	movq	(%rax), %rax
	leaq	-1(%rax), %rdx
	movq	-40(%rbp), %rax
	movq	%rdx, (%rax)
	movq	-40(%rbp), %rax
	movq	(%rax), %rax
	testq	%rax, %rax
	jne	.L203
	movq	-40(%rbp), %rax
	movq	8(%rax), %rax
	movq	48(%rax), %rdx
	movq	-40(%rbp), %rax
	movq	%rax, %rdi
	call	*%rdx
.L203:
	cmpq	$0, -32(%rbp)
	je	.L204
	movq	-32(%rbp), %rax
	movq	(%rax), %rax
	leaq	-1(%rax), %rdx
	movq	-32(%rbp), %rax
	movq	%rdx, (%rax)
	movq	-32(%rbp), %rax
	movq	(%rax), %rax
	testq	%rax, %rax
	jne	.L204
	movq	-32(%rbp), %rax
	movq	8(%rax), %rax
	movq	48(%rax), %rdx
	movq	-32(%rbp), %rax
	movq	%rax, %rdi
	call	*%rdx
.L204:
	movq	-16(%rbp), %rcx
	movl	-20(%rbp), %edx
	movl	-4(%rbp), %eax
	movl	%eax, %esi
	movl	$.LC13, %edi
	call	__Pyx_AddTraceback
	movq	$0, -56(%rbp)
.L201:
	movq	-56(%rbp), %rax
	leave
	.cfi_def_cfa 7, 8
	ret
	.cfi_endproc
.LFE14:
	.size	__pyx_pf_8friedman_8Fraction_6__repr__, .-__pyx_pf_8friedman_8Fraction_6__repr__
	.section	.rodata
.LC14:
	.string	"fac"
	.data
	.align 32
	.type	__pyx_mdef_8friedman_1fac, @object
	.size	__pyx_mdef_8friedman_1fac, 32
__pyx_mdef_8friedman_1fac:
	.quad	.LC14
	.quad	__pyx_pw_8friedman_1fac
	.long	8
	.zero	4
	.quad	0
	.text
	.type	__pyx_pw_8friedman_1fac, @function
__pyx_pw_8friedman_1fac:
.LFB15:
	.cfi_startproc
	pushq	%rbp
	.cfi_def_cfa_offset 16
	.cfi_offset 6, -16
	movq	%rsp, %rbp
	.cfi_def_cfa_register 6
	subq	$32, %rsp
	movq	%rdi, -24(%rbp)
	movq	%rsi, -32(%rbp)
	movq	$0, -8(%rbp)
	movq	-32(%rbp), %rdx
	movq	-24(%rbp), %rax
	movq	%rdx, %rsi
	movq	%rax, %rdi
	call	__pyx_pf_8friedman_fac
	movq	%rax, -8(%rbp)
	movq	-8(%rbp), %rax
	leave
	.cfi_def_cfa 7, 8
	ret
	.cfi_endproc
.LFE15:
	.size	__pyx_pw_8friedman_1fac, .-__pyx_pw_8friedman_1fac
	.section	.rodata
.LC15:
	.string	"friedman.fac"
	.text
	.type	__pyx_pf_8friedman_fac, @function
__pyx_pf_8friedman_fac:
.LFB16:
	.cfi_startproc
	pushq	%rbp
	.cfi_def_cfa_offset 16
	.cfi_offset 6, -16
	movq	%rsp, %rbp
	.cfi_def_cfa_register 6
	subq	$112, %rsp
	movq	%rdi, -104(%rbp)
	movq	%rsi, -112(%rbp)
	movq	$0, -96(%rbp)
	movq	$0, -88(%rbp)
	movq	$0, -72(%rbp)
	movq	$0, -64(%rbp)
	movq	$0, -56(%rbp)
	movq	$0, -48(%rbp)
	movl	$0, -36(%rbp)
	movq	$0, -32(%rbp)
	movl	$0, -20(%rbp)
	movq	__pyx_int_0(%rip), %rcx
	movq	-112(%rbp), %rax
	movl	$1, %edx
	movq	%rcx, %rsi
	movq	%rax, %rdi
	call	PyObject_RichCompare
	movq	%rax, -88(%rbp)
	cmpq	$0, -88(%rbp)
	sete	%al
	movzbl	%al, %eax
	testq	%rax, %rax
	je	.L209
	movq	__pyx_f(%rip), %rax
	movq	%rax, -32(%rbp)
	movl	$30, -36(%rbp)
	movl	$1769, -20(%rbp)
	jmp	.L210
.L209:
	movq	-88(%rbp), %rax
	movq	%rax, %rdi
	call	__Pyx_PyObject_IsTrue
	movl	%eax, -76(%rbp)
	movl	-76(%rbp), %eax
	cltq
	shrq	$63, %rax
	testq	%rax, %rax
	je	.L211
	movq	__pyx_f(%rip), %rax
	movq	%rax, -32(%rbp)
	movl	$30, -36(%rbp)
	movl	$1770, -20(%rbp)
	jmp	.L210
.L211:
	movq	-88(%rbp), %rax
	movq	(%rax), %rax
	leaq	-1(%rax), %rdx
	movq	-88(%rbp), %rax
	movq	%rdx, (%rax)
	movq	-88(%rbp), %rax
	movq	(%rax), %rax
	testq	%rax, %rax
	jne	.L212
	movq	-88(%rbp), %rax
	movq	8(%rax), %rax
	movq	48(%rax), %rdx
	movq	-88(%rbp), %rax
	movq	%rax, %rdi
	call	*%rdx
.L212:
	movq	$0, -88(%rbp)
	cmpl	$0, -76(%rbp)
	je	.L213
	cmpq	$0, -96(%rbp)
	je	.L214
	movq	-96(%rbp), %rax
	movq	(%rax), %rax
	leaq	-1(%rax), %rdx
	movq	-96(%rbp), %rax
	movq	%rdx, (%rax)
	movq	-96(%rbp), %rax
	movq	(%rax), %rax
	testq	%rax, %rax
	jne	.L214
	movq	-96(%rbp), %rax
	movq	8(%rax), %rax
	movq	48(%rax), %rdx
	movq	-96(%rbp), %rax
	movq	%rax, %rdi
	call	*%rdx
.L214:
	movq	__pyx_int_1(%rip), %rax
	movq	(%rax), %rdx
	addq	$1, %rdx
	movq	%rdx, (%rax)
	movq	__pyx_int_1(%rip), %rax
	movq	%rax, -96(%rbp)
	jmp	.L215
.L213:
	cmpq	$0, -96(%rbp)
	je	.L216
	movq	-96(%rbp), %rax
	movq	(%rax), %rax
	leaq	-1(%rax), %rdx
	movq	-96(%rbp), %rax
	movq	%rdx, (%rax)
	movq	-96(%rbp), %rax
	movq	(%rax), %rax
	testq	%rax, %rax
	jne	.L216
	movq	-96(%rbp), %rax
	movq	8(%rax), %rax
	movq	48(%rax), %rdx
	movq	-96(%rbp), %rax
	movq	%rax, %rdi
	call	*%rdx
.L216:
	movq	__pyx_n_s_fac(%rip), %rax
	movq	%rax, %rdi
	call	__Pyx_GetModuleGlobalName
	movq	%rax, -72(%rbp)
	cmpq	$0, -72(%rbp)
	sete	%al
	movzbl	%al, %eax
	testq	%rax, %rax
	je	.L217
	movq	__pyx_f(%rip), %rax
	movq	%rax, -32(%rbp)
	movl	$34, -36(%rbp)
	movl	$1796, -20(%rbp)
	jmp	.L210
.L217:
	movq	__pyx_int_1(%rip), %rdx
	movq	-112(%rbp), %rax
	movq	%rdx, %rsi
	movq	%rax, %rdi
	call	PyNumber_Subtract
	movq	%rax, -64(%rbp)
	cmpq	$0, -64(%rbp)
	sete	%al
	movzbl	%al, %eax
	testq	%rax, %rax
	je	.L218
	movq	__pyx_f(%rip), %rax
	movq	%rax, -32(%rbp)
	movl	$34, -36(%rbp)
	movl	$1798, -20(%rbp)
	jmp	.L210
.L218:
	movq	$0, -56(%rbp)
	movq	-72(%rbp), %rax
	movq	8(%rax), %rax
	cmpq	$PyMethod_Type, %rax
	sete	%al
	movzbl	%al, %eax
	testq	%rax, %rax
	je	.L219
	movq	-72(%rbp), %rax
	movq	24(%rax), %rax
	movq	%rax, -56(%rbp)
	cmpq	$0, -56(%rbp)
	setne	%al
	movzbl	%al, %eax
	testq	%rax, %rax
	je	.L219
	movq	-72(%rbp), %rax
	movq	16(%rax), %rax
	movq	%rax, -16(%rbp)
	movq	-56(%rbp), %rax
	movq	(%rax), %rax
	leaq	1(%rax), %rdx
	movq	-56(%rbp), %rax
	movq	%rdx, (%rax)
	movq	-16(%rbp), %rax
	movq	(%rax), %rax
	leaq	1(%rax), %rdx
	movq	-16(%rbp), %rax
	movq	%rdx, (%rax)
	movq	-72(%rbp), %rax
	movq	%rax, -8(%rbp)
	movq	-16(%rbp), %rax
	movq	%rax, -72(%rbp)
	movq	-8(%rbp), %rax
	movq	(%rax), %rax
	leaq	-1(%rax), %rdx
	movq	-8(%rbp), %rax
	movq	%rdx, (%rax)
	movq	-8(%rbp), %rax
	movq	(%rax), %rax
	testq	%rax, %rax
	jne	.L219
	movq	-8(%rbp), %rax
	movq	8(%rax), %rax
	movq	48(%rax), %rdx
	movq	-8(%rbp), %rax
	movq	%rax, %rdi
	call	*%rdx
.L219:
	cmpq	$0, -56(%rbp)
	jne	.L220
	movq	-64(%rbp), %rdx
	movq	-72(%rbp), %rax
	movq	%rdx, %rsi
	movq	%rax, %rdi
	call	__Pyx_PyObject_CallOneArg
	movq	%rax, -88(%rbp)
	cmpq	$0, -88(%rbp)
	sete	%al
	movzbl	%al, %eax
	testq	%rax, %rax
	je	.L221
	movq	__pyx_f(%rip), %rax
	movq	%rax, -32(%rbp)
	movl	$34, -36(%rbp)
	movl	$1811, -20(%rbp)
	jmp	.L210
.L221:
	movq	-64(%rbp), %rax
	movq	(%rax), %rax
	leaq	-1(%rax), %rdx
	movq	-64(%rbp), %rax
	movq	%rdx, (%rax)
	movq	-64(%rbp), %rax
	movq	(%rax), %rax
	testq	%rax, %rax
	jne	.L222
	movq	-64(%rbp), %rax
	movq	8(%rax), %rax
	movq	48(%rax), %rdx
	movq	-64(%rbp), %rax
	movq	%rax, %rdi
	call	*%rdx
.L222:
	movq	$0, -64(%rbp)
	jmp	.L223
.L220:
	movl	$2, %edi
	call	PyTuple_New
	movq	%rax, -48(%rbp)
	cmpq	$0, -48(%rbp)
	sete	%al
	movzbl	%al, %eax
	testq	%rax, %rax
	je	.L224
	movq	__pyx_f(%rip), %rax
	movq	%rax, -32(%rbp)
	movl	$34, -36(%rbp)
	movl	$1815, -20(%rbp)
	jmp	.L210
.L224:
	movq	-48(%rbp), %rax
	movq	-56(%rbp), %rdx
	movq	%rdx, 24(%rax)
	movq	$0, -56(%rbp)
	movq	-48(%rbp), %rax
	movq	-64(%rbp), %rdx
	movq	%rdx, 32(%rax)
	movq	$0, -64(%rbp)
	movq	-48(%rbp), %rcx
	movq	-72(%rbp), %rax
	movl	$0, %edx
	movq	%rcx, %rsi
	movq	%rax, %rdi
	call	__Pyx_PyObject_Call
	movq	%rax, -88(%rbp)
	cmpq	$0, -88(%rbp)
	sete	%al
	movzbl	%al, %eax
	testq	%rax, %rax
	je	.L225
	movq	__pyx_f(%rip), %rax
	movq	%rax, -32(%rbp)
	movl	$34, -36(%rbp)
	movl	$1821, -20(%rbp)
	jmp	.L210
.L225:
	movq	-48(%rbp), %rax
	movq	(%rax), %rax
	leaq	-1(%rax), %rdx
	movq	-48(%rbp), %rax
	movq	%rdx, (%rax)
	movq	-48(%rbp), %rax
	movq	(%rax), %rax
	testq	%rax, %rax
	jne	.L226
	movq	-48(%rbp), %rax
	movq	8(%rax), %rax
	movq	48(%rax), %rdx
	movq	-48(%rbp), %rax
	movq	%rax, %rdi
	call	*%rdx
.L226:
	movq	$0, -48(%rbp)
.L223:
	movq	-72(%rbp), %rax
	movq	(%rax), %rax
	leaq	-1(%rax), %rdx
	movq	-72(%rbp), %rax
	movq	%rdx, (%rax)
	movq	-72(%rbp), %rax
	movq	(%rax), %rax
	testq	%rax, %rax
	jne	.L227
	movq	-72(%rbp), %rax
	movq	8(%rax), %rax
	movq	48(%rax), %rdx
	movq	-72(%rbp), %rax
	movq	%rax, %rdi
	call	*%rdx
.L227:
	movq	$0, -72(%rbp)
	movq	-88(%rbp), %rdx
	movq	-112(%rbp), %rax
	movq	%rdx, %rsi
	movq	%rax, %rdi
	call	PyNumber_Multiply
	movq	%rax, -72(%rbp)
	cmpq	$0, -72(%rbp)
	sete	%al
	movzbl	%al, %eax
	testq	%rax, %rax
	je	.L228
	movq	__pyx_f(%rip), %rax
	movq	%rax, -32(%rbp)
	movl	$34, -36(%rbp)
	movl	$1826, -20(%rbp)
	jmp	.L210
.L228:
	movq	-88(%rbp), %rax
	movq	(%rax), %rax
	leaq	-1(%rax), %rdx
	movq	-88(%rbp), %rax
	movq	%rdx, (%rax)
	movq	-88(%rbp), %rax
	movq	(%rax), %rax
	testq	%rax, %rax
	jne	.L229
	movq	-88(%rbp), %rax
	movq	8(%rax), %rax
	movq	48(%rax), %rdx
	movq	-88(%rbp), %rax
	movq	%rax, %rdi
	call	*%rdx
.L229:
	movq	$0, -88(%rbp)
	movq	-72(%rbp), %rax
	movq	%rax, -96(%rbp)
	movq	$0, -72(%rbp)
	jmp	.L215
.L210:
	cmpq	$0, -88(%rbp)
	je	.L230
	movq	-88(%rbp), %rax
	movq	(%rax), %rax
	leaq	-1(%rax), %rdx
	movq	-88(%rbp), %rax
	movq	%rdx, (%rax)
	movq	-88(%rbp), %rax
	movq	(%rax), %rax
	testq	%rax, %rax
	jne	.L230
	movq	-88(%rbp), %rax
	movq	8(%rax), %rax
	movq	48(%rax), %rdx
	movq	-88(%rbp), %rax
	movq	%rax, %rdi
	call	*%rdx
.L230:
	cmpq	$0, -72(%rbp)
	je	.L231
	movq	-72(%rbp), %rax
	movq	(%rax), %rax
	leaq	-1(%rax), %rdx
	movq	-72(%rbp), %rax
	movq	%rdx, (%rax)
	movq	-72(%rbp), %rax
	movq	(%rax), %rax
	testq	%rax, %rax
	jne	.L231
	movq	-72(%rbp), %rax
	movq	8(%rax), %rax
	movq	48(%rax), %rdx
	movq	-72(%rbp), %rax
	movq	%rax, %rdi
	call	*%rdx
.L231:
	cmpq	$0, -64(%rbp)
	je	.L232
	movq	-64(%rbp), %rax
	movq	(%rax), %rax
	leaq	-1(%rax), %rdx
	movq	-64(%rbp), %rax
	movq	%rdx, (%rax)
	movq	-64(%rbp), %rax
	movq	(%rax), %rax
	testq	%rax, %rax
	jne	.L232
	movq	-64(%rbp), %rax
	movq	8(%rax), %rax
	movq	48(%rax), %rdx
	movq	-64(%rbp), %rax
	movq	%rax, %rdi
	call	*%rdx
.L232:
	cmpq	$0, -56(%rbp)
	je	.L233
	movq	-56(%rbp), %rax
	movq	(%rax), %rax
	leaq	-1(%rax), %rdx
	movq	-56(%rbp), %rax
	movq	%rdx, (%rax)
	movq	-56(%rbp), %rax
	movq	(%rax), %rax
	testq	%rax, %rax
	jne	.L233
	movq	-56(%rbp), %rax
	movq	8(%rax), %rax
	movq	48(%rax), %rdx
	movq	-56(%rbp), %rax
	movq	%rax, %rdi
	call	*%rdx
.L233:
	cmpq	$0, -48(%rbp)
	je	.L234
	movq	-48(%rbp), %rax
	movq	(%rax), %rax
	leaq	-1(%rax), %rdx
	movq	-48(%rbp), %rax
	movq	%rdx, (%rax)
	movq	-48(%rbp), %rax
	movq	(%rax), %rax
	testq	%rax, %rax
	jne	.L234
	movq	-48(%rbp), %rax
	movq	8(%rax), %rax
	movq	48(%rax), %rdx
	movq	-48(%rbp), %rax
	movq	%rax, %rdi
	call	*%rdx
.L234:
	movq	-32(%rbp), %rcx
	movl	-36(%rbp), %edx
	movl	-20(%rbp), %eax
	movl	%eax, %esi
	movl	$.LC15, %edi
	call	__Pyx_AddTraceback
	movq	$0, -96(%rbp)
.L215:
	movq	-96(%rbp), %rax
	leave
	.cfi_def_cfa 7, 8
	ret
	.cfi_endproc
.LFE16:
	.size	__pyx_pf_8friedman_fac, .-__pyx_pf_8friedman_fac
	.section	.rodata
.LC16:
	.string	"generateAllKSets"
	.data
	.align 32
	.type	__pyx_mdef_8friedman_3generateAllKSets, @object
	.size	__pyx_mdef_8friedman_3generateAllKSets, 32
__pyx_mdef_8friedman_3generateAllKSets:
	.quad	.LC16
	.quad	__pyx_pw_8friedman_3generateAllKSets
	.long	3
	.zero	4
	.quad	0
	.section	.rodata
.LC17:
	.string	"friedman.generateAllKSets"
	.text
	.type	__pyx_pw_8friedman_3generateAllKSets, @function
__pyx_pw_8friedman_3generateAllKSets:
.LFB17:
	.cfi_startproc
	pushq	%rbp
	.cfi_def_cfa_offset 16
	.cfi_offset 6, -16
	movq	%rsp, %rbp
	.cfi_def_cfa_register 6
	subq	$112, %rsp
	movq	%rdi, -88(%rbp)
	movq	%rsi, -96(%rbp)
	movq	%rdx, -104(%rbp)
	movq	$0, -64(%rbp)
	movq	$0, -56(%rbp)
	movl	$0, -44(%rbp)
	movq	$0, -40(%rbp)
	movl	$0, -28(%rbp)
	movq	$0, -24(%rbp)
	movq	$0, -80(%rbp)
	movq	$0, -72(%rbp)
	cmpq	$0, -104(%rbp)
	setne	%al
	movzbl	%al, %eax
	testq	%rax, %rax
	je	.L237
	movq	-96(%rbp), %rax
	movq	16(%rax), %rax
	movq	%rax, -8(%rbp)
	movq	-8(%rbp), %rax
	cmpq	$1, %rax
	je	.L240
	cmpq	$2, %rax
	je	.L241
	testq	%rax, %rax
	je	.L255
	jmp	.L243
.L241:
	movq	-96(%rbp), %rax
	movq	32(%rax), %rax
	movq	%rax, -72(%rbp)
.L240:
	movq	-96(%rbp), %rax
	movq	24(%rax), %rax
	movq	%rax, -80(%rbp)
	jmp	.L242
.L255:
	nop
.L242:
	movq	-104(%rbp), %rax
	movq	%rax, %rdi
	call	PyDict_Size
	movq	%rax, -16(%rbp)
	movq	-8(%rbp), %rax
	testq	%rax, %rax
	je	.L245
	cmpq	$1, %rax
	je	.L246
	jmp	.L244
.L245:
	movq	__pyx_n_s_k(%rip), %rdx
	movq	-104(%rbp), %rax
	movq	%rdx, %rsi
	movq	%rax, %rdi
	call	PyDict_GetItem
	movq	%rax, -80(%rbp)
	movq	-80(%rbp), %rax
	testq	%rax, %rax
	setne	%al
	movzbl	%al, %eax
	testq	%rax, %rax
	je	.L256
	subq	$1, -16(%rbp)
.L246:
	movq	__pyx_n_s_eightKNRfac(%rip), %rdx
	movq	-104(%rbp), %rax
	movq	%rdx, %rsi
	movq	%rax, %rdi
	call	PyDict_GetItem
	movq	%rax, -72(%rbp)
	movq	-72(%rbp), %rax
	testq	%rax, %rax
	setne	%al
	movzbl	%al, %eax
	testq	%rax, %rax
	je	.L248
	subq	$1, -16(%rbp)
	jmp	.L244
.L248:
	movl	$1, %r8d
	movl	$2, %ecx
	movl	$2, %edx
	movl	$1, %esi
	movl	$.LC16, %edi
	call	__Pyx_RaiseArgtupleInvalid
	movq	__pyx_f(%rip), %rax
	movq	%rax, -40(%rbp)
	movl	$37, -44(%rbp)
	movl	$1897, -28(%rbp)
	jmp	.L249
.L244:
	cmpq	$0, -16(%rbp)
	setg	%al
	movzbl	%al, %eax
	testq	%rax, %rax
	je	.L250
	movq	-8(%rbp), %rcx
	leaq	-80(%rbp), %rdx
	movq	-104(%rbp), %rax
	movl	$.LC16, %r9d
	movq	%rcx, %r8
	movq	%rdx, %rcx
	movl	$0, %edx
	movl	$__pyx_pyargnames.10641, %esi
	movq	%rax, %rdi
	call	__Pyx_ParseOptionalKeywords
	cltq
	shrq	$63, %rax
	testq	%rax, %rax
	je	.L250
	movq	__pyx_f(%rip), %rax
	movq	%rax, -40(%rbp)
	movl	$37, -44(%rbp)
	movl	$1901, -28(%rbp)
	jmp	.L249
.L237:
	movq	-96(%rbp), %rax
	movq	16(%rax), %rax
	cmpq	$2, %rax
	jne	.L257
.L251:
	movq	-96(%rbp), %rax
	movq	24(%rax), %rax
	movq	%rax, -80(%rbp)
	movq	-96(%rbp), %rax
	movq	32(%rax), %rax
	movq	%rax, -72(%rbp)
.L250:
	movq	-80(%rbp), %rax
	movq	%rax, -64(%rbp)
	movq	-72(%rbp), %rax
	movq	%rax, -56(%rbp)
	nop
.L252:
	movq	-56(%rbp), %rdx
	movq	-64(%rbp), %rcx
	movq	-88(%rbp), %rax
	movq	%rcx, %rsi
	movq	%rax, %rdi
	call	__pyx_pf_8friedman_2generateAllKSets
	movq	%rax, -24(%rbp)
	movq	-24(%rbp), %rax
	jmp	.L253
.L256:
	nop
	jmp	.L243
.L257:
	nop
.L243:
	movq	-96(%rbp), %rax
	movq	16(%rax), %rax
	movq	%rax, %r8
	movl	$2, %ecx
	movl	$2, %edx
	movl	$1, %esi
	movl	$.LC16, %edi
	call	__Pyx_RaiseArgtupleInvalid
	movq	__pyx_f(%rip), %rax
	movq	%rax, -40(%rbp)
	movl	$37, -44(%rbp)
	movl	$1914, -28(%rbp)
.L249:
	movq	-40(%rbp), %rcx
	movl	-44(%rbp), %edx
	movl	-28(%rbp), %eax
	movl	%eax, %esi
	movl	$.LC17, %edi
	call	__Pyx_AddTraceback
	movl	$0, %eax
.L253:
	leave
	.cfi_def_cfa 7, 8
	ret
	.cfi_endproc
.LFE17:
	.size	__pyx_pw_8friedman_3generateAllKSets, .-__pyx_pw_8friedman_3generateAllKSets
	.type	__pyx_pf_8friedman_2generateAllKSets, @function
__pyx_pf_8friedman_2generateAllKSets:
.LFB18:
	.cfi_startproc
	pushq	%rbp
	.cfi_def_cfa_offset 16
	.cfi_offset 6, -16
	movq	%rsp, %rbp
	.cfi_def_cfa_register 6
	subq	$288, %rsp
	movq	%rdi, -264(%rbp)
	movq	%rsi, -272(%rbp)
	movq	%rdx, -280(%rbp)
	movq	$0, -248(%rbp)
	movq	$0, -240(%rbp)
	movq	$0, -232(%rbp)
	movq	$0, -224(%rbp)
	movq	$0, -216(%rbp)
	movq	$0, -208(%rbp)
	movq	$0, -200(%rbp)
	movq	$0, -192(%rbp)
	movq	$0, -176(%rbp)
	movq	$0, -168(%rbp)
	movq	$0, -160(%rbp)
	movq	$0, -144(%rbp)
	movl	$0, -108(%rbp)
	movq	$0, -104(%rbp)
	movl	$0, -92(%rbp)
	movq	__pyx_int_0(%rip), %rcx
	movq	-272(%rbp), %rax
	movl	$2, %edx
	movq	%rcx, %rsi
	movq	%rax, %rdi
	call	PyObject_RichCompare
	movq	%rax, -192(%rbp)
	cmpq	$0, -192(%rbp)
	sete	%al
	movzbl	%al, %eax
	testq	%rax, %rax
	je	.L259
	movq	__pyx_f(%rip), %rax
	movq	%rax, -104(%rbp)
	movl	$39, -108(%rbp)
	movl	$1959, -92(%rbp)
	jmp	.L260
.L259:
	movq	-192(%rbp), %rax
	movq	%rax, %rdi
	call	__Pyx_PyObject_IsTrue
	movl	%eax, -180(%rbp)
	movl	-180(%rbp), %eax
	cltq
	shrq	$63, %rax
	testq	%rax, %rax
	je	.L261
	movq	__pyx_f(%rip), %rax
	movq	%rax, -104(%rbp)
	movl	$39, -108(%rbp)
	movl	$1960, -92(%rbp)
	jmp	.L260
.L261:
	movq	-192(%rbp), %rax
	movq	(%rax), %rax
	leaq	-1(%rax), %rdx
	movq	-192(%rbp), %rax
	movq	%rdx, (%rax)
	movq	-192(%rbp), %rax
	movq	(%rax), %rax
	testq	%rax, %rax
	jne	.L262
	movq	-192(%rbp), %rax
	movq	8(%rax), %rax
	movq	48(%rax), %rdx
	movq	-192(%rbp), %rax
	movq	%rax, %rdi
	call	*%rdx
.L262:
	movq	$0, -192(%rbp)
	cmpl	$0, -180(%rbp)
	je	.L263
	cmpq	$0, -200(%rbp)
	je	.L264
	movq	-200(%rbp), %rax
	movq	(%rax), %rax
	leaq	-1(%rax), %rdx
	movq	-200(%rbp), %rax
	movq	%rdx, (%rax)
	movq	-200(%rbp), %rax
	movq	(%rax), %rax
	testq	%rax, %rax
	jne	.L264
	movq	-200(%rbp), %rax
	movq	8(%rax), %rax
	movq	48(%rax), %rdx
	movq	-200(%rbp), %rax
	movq	%rax, %rdi
	call	*%rdx
.L264:
	movl	$0, %edi
	call	PyList_New
	movq	%rax, -192(%rbp)
	cmpq	$0, -192(%rbp)
	sete	%al
	movzbl	%al, %eax
	testq	%rax, %rax
	je	.L265
	movq	__pyx_f(%rip), %rax
	movq	%rax, -104(%rbp)
	movl	$40, -108(%rbp)
	movl	$1972, -92(%rbp)
	jmp	.L260
.L265:
	movl	$1, %edi
	call	PyList_New
	movq	%rax, -176(%rbp)
	cmpq	$0, -176(%rbp)
	sete	%al
	movzbl	%al, %eax
	testq	%rax, %rax
	je	.L266
	movq	__pyx_f(%rip), %rax
	movq	%rax, -104(%rbp)
	movl	$40, -108(%rbp)
	movl	$1974, -92(%rbp)
	jmp	.L260
.L266:
	movq	-176(%rbp), %rax
	movq	24(%rax), %rax
	movq	-192(%rbp), %rdx
	movq	%rdx, (%rax)
	movq	$0, -192(%rbp)
	movq	-176(%rbp), %rax
	movq	%rax, -200(%rbp)
	movq	$0, -176(%rbp)
	jmp	.L267
.L263:
	movq	__pyx_n_s_generateAllKSets(%rip), %rax
	movq	%rax, %rdi
	call	__Pyx_GetModuleGlobalName
	movq	%rax, -192(%rbp)
	cmpq	$0, -192(%rbp)
	sete	%al
	movzbl	%al, %eax
	testq	%rax, %rax
	je	.L268
	movq	__pyx_f(%rip), %rax
	movq	%rax, -104(%rbp)
	movl	$43, -108(%rbp)
	movl	$1992, -92(%rbp)
	jmp	.L260
.L268:
	movq	__pyx_int_1(%rip), %rdx
	movq	-272(%rbp), %rax
	movq	%rdx, %rsi
	movq	%rax, %rdi
	call	PyNumber_Subtract
	movq	%rax, -168(%rbp)
	cmpq	$0, -168(%rbp)
	sete	%al
	movzbl	%al, %eax
	testq	%rax, %rax
	je	.L269
	movq	__pyx_f(%rip), %rax
	movq	%rax, -104(%rbp)
	movl	$43, -108(%rbp)
	movl	$1994, -92(%rbp)
	jmp	.L260
.L269:
	movq	$0, -160(%rbp)
	movq	$0, -152(%rbp)
	movq	-192(%rbp), %rax
	movq	8(%rax), %rax
	cmpq	$PyMethod_Type, %rax
	sete	%al
	movzbl	%al, %eax
	testq	%rax, %rax
	je	.L270
	movq	-192(%rbp), %rax
	movq	24(%rax), %rax
	movq	%rax, -160(%rbp)
	cmpq	$0, -160(%rbp)
	setne	%al
	movzbl	%al, %eax
	testq	%rax, %rax
	je	.L270
	movq	-192(%rbp), %rax
	movq	16(%rax), %rax
	movq	%rax, -88(%rbp)
	movq	-160(%rbp), %rax
	movq	(%rax), %rax
	leaq	1(%rax), %rdx
	movq	-160(%rbp), %rax
	movq	%rdx, (%rax)
	movq	-88(%rbp), %rax
	movq	(%rax), %rax
	leaq	1(%rax), %rdx
	movq	-88(%rbp), %rax
	movq	%rdx, (%rax)
	movq	-192(%rbp), %rax
	movq	%rax, -80(%rbp)
	movq	-88(%rbp), %rax
	movq	%rax, -192(%rbp)
	movq	-80(%rbp), %rax
	movq	(%rax), %rax
	leaq	-1(%rax), %rdx
	movq	-80(%rbp), %rax
	movq	%rdx, (%rax)
	movq	-80(%rbp), %rax
	movq	(%rax), %rax
	testq	%rax, %rax
	jne	.L271
	movq	-80(%rbp), %rax
	movq	8(%rax), %rax
	movq	48(%rax), %rdx
	movq	-80(%rbp), %rax
	movq	%rax, %rdi
	call	*%rdx
.L271:
	movq	$1, -152(%rbp)
.L270:
	movq	-152(%rbp), %rax
	addq	$2, %rax
	movq	%rax, %rdi
	call	PyTuple_New
	movq	%rax, -144(%rbp)
	cmpq	$0, -144(%rbp)
	sete	%al
	movzbl	%al, %eax
	testq	%rax, %rax
	je	.L272
	movq	__pyx_f(%rip), %rax
	movq	%rax, -104(%rbp)
	movl	$43, -108(%rbp)
	movl	$2008, -92(%rbp)
	jmp	.L260
.L272:
	cmpq	$0, -160(%rbp)
	je	.L273
	movq	-144(%rbp), %rax
	movq	-160(%rbp), %rdx
	movq	%rdx, 24(%rax)
	movq	$0, -160(%rbp)
.L273:
	movq	-144(%rbp), %rax
	movq	-152(%rbp), %rdx
	leaq	2(%rdx), %rcx
	movq	-168(%rbp), %rdx
	movq	%rdx, 8(%rax,%rcx,8)
	movq	-280(%rbp), %rax
	movq	(%rax), %rax
	leaq	1(%rax), %rdx
	movq	-280(%rbp), %rax
	movq	%rdx, (%rax)
	movq	-144(%rbp), %rax
	movq	-152(%rbp), %rdx
	addq	$1, %rdx
	leaq	2(%rdx), %rcx
	movq	-280(%rbp), %rdx
	movq	%rdx, 8(%rax,%rcx,8)
	movq	$0, -168(%rbp)
	movq	-144(%rbp), %rcx
	movq	-192(%rbp), %rax
	movl	$0, %edx
	movq	%rcx, %rsi
	movq	%rax, %rdi
	call	__Pyx_PyObject_Call
	movq	%rax, -176(%rbp)
	cmpq	$0, -176(%rbp)
	sete	%al
	movzbl	%al, %eax
	testq	%rax, %rax
	je	.L274
	movq	__pyx_f(%rip), %rax
	movq	%rax, -104(%rbp)
	movl	$43, -108(%rbp)
	movl	$2019, -92(%rbp)
	jmp	.L260
.L274:
	movq	-144(%rbp), %rax
	movq	(%rax), %rax
	leaq	-1(%rax), %rdx
	movq	-144(%rbp), %rax
	movq	%rdx, (%rax)
	movq	-144(%rbp), %rax
	movq	(%rax), %rax
	testq	%rax, %rax
	jne	.L275
	movq	-144(%rbp), %rax
	movq	8(%rax), %rax
	movq	48(%rax), %rdx
	movq	-144(%rbp), %rax
	movq	%rax, %rdi
	call	*%rdx
.L275:
	movq	$0, -144(%rbp)
	movq	-192(%rbp), %rax
	movq	(%rax), %rax
	leaq	-1(%rax), %rdx
	movq	-192(%rbp), %rax
	movq	%rdx, (%rax)
	movq	-192(%rbp), %rax
	movq	(%rax), %rax
	testq	%rax, %rax
	jne	.L276
	movq	-192(%rbp), %rax
	movq	8(%rax), %rax
	movq	48(%rax), %rdx
	movq	-192(%rbp), %rax
	movq	%rax, %rdi
	call	*%rdx
.L276:
	movq	$0, -192(%rbp)
	movq	-176(%rbp), %rax
	movq	%rax, -248(%rbp)
	movq	$0, -176(%rbp)
	movl	$0, %edi
	call	PyList_New
	movq	%rax, -176(%rbp)
	cmpq	$0, -176(%rbp)
	sete	%al
	movzbl	%al, %eax
	testq	%rax, %rax
	je	.L277
	movq	__pyx_f(%rip), %rax
	movq	%rax, -104(%rbp)
	movl	$45, -108(%rbp)
	movl	$2034, -92(%rbp)
	jmp	.L260
.L277:
	movq	-176(%rbp), %rax
	movq	%rax, -240(%rbp)
	movq	$0, -176(%rbp)
	movq	__pyx_n_s_generateAllFractions(%rip), %rax
	movq	%rax, %rdi
	call	__Pyx_GetModuleGlobalName
	movq	%rax, -192(%rbp)
	cmpq	$0, -192(%rbp)
	sete	%al
	movzbl	%al, %eax
	testq	%rax, %rax
	je	.L278
	movq	__pyx_f(%rip), %rax
	movq	%rax, -104(%rbp)
	movl	$46, -108(%rbp)
	movl	$2046, -92(%rbp)
	jmp	.L260
.L278:
	movq	$0, -144(%rbp)
	movq	-192(%rbp), %rax
	movq	8(%rax), %rax
	cmpq	$PyMethod_Type, %rax
	sete	%al
	movzbl	%al, %eax
	testq	%rax, %rax
	je	.L279
	movq	-192(%rbp), %rax
	movq	24(%rax), %rax
	movq	%rax, -144(%rbp)
	cmpq	$0, -144(%rbp)
	setne	%al
	movzbl	%al, %eax
	testq	%rax, %rax
	je	.L279
	movq	-192(%rbp), %rax
	movq	16(%rax), %rax
	movq	%rax, -72(%rbp)
	movq	-144(%rbp), %rax
	movq	(%rax), %rax
	leaq	1(%rax), %rdx
	movq	-144(%rbp), %rax
	movq	%rdx, (%rax)
	movq	-72(%rbp), %rax
	movq	(%rax), %rax
	leaq	1(%rax), %rdx
	movq	-72(%rbp), %rax
	movq	%rdx, (%rax)
	movq	-192(%rbp), %rax
	movq	%rax, -64(%rbp)
	movq	-72(%rbp), %rax
	movq	%rax, -192(%rbp)
	movq	-64(%rbp), %rax
	movq	(%rax), %rax
	leaq	-1(%rax), %rdx
	movq	-64(%rbp), %rax
	movq	%rdx, (%rax)
	movq	-64(%rbp), %rax
	movq	(%rax), %rax
	testq	%rax, %rax
	jne	.L279
	movq	-64(%rbp), %rax
	movq	8(%rax), %rax
	movq	48(%rax), %rdx
	movq	-64(%rbp), %rax
	movq	%rax, %rdi
	call	*%rdx
.L279:
	cmpq	$0, -144(%rbp)
	jne	.L280
	movq	-280(%rbp), %rdx
	movq	-192(%rbp), %rax
	movq	%rdx, %rsi
	movq	%rax, %rdi
	call	__Pyx_PyObject_CallOneArg
	movq	%rax, -176(%rbp)
	cmpq	$0, -176(%rbp)
	sete	%al
	movzbl	%al, %eax
	testq	%rax, %rax
	je	.L281
	movq	__pyx_f(%rip), %rax
	movq	%rax, -104(%rbp)
	movl	$46, -108(%rbp)
	movl	$2059, -92(%rbp)
	jmp	.L260
.L280:
	movl	$2, %edi
	call	PyTuple_New
	movq	%rax, -168(%rbp)
	cmpq	$0, -168(%rbp)
	sete	%al
	movzbl	%al, %eax
	testq	%rax, %rax
	je	.L282
	movq	__pyx_f(%rip), %rax
	movq	%rax, -104(%rbp)
	movl	$46, -108(%rbp)
	movl	$2062, -92(%rbp)
	jmp	.L260
.L282:
	movq	-168(%rbp), %rax
	movq	-144(%rbp), %rdx
	movq	%rdx, 24(%rax)
	movq	$0, -144(%rbp)
	movq	-280(%rbp), %rax
	movq	(%rax), %rax
	leaq	1(%rax), %rdx
	movq	-280(%rbp), %rax
	movq	%rdx, (%rax)
	movq	-168(%rbp), %rax
	movq	-280(%rbp), %rdx
	movq	%rdx, 32(%rax)
	movq	-168(%rbp), %rcx
	movq	-192(%rbp), %rax
	movl	$0, %edx
	movq	%rcx, %rsi
	movq	%rax, %rdi
	call	__Pyx_PyObject_Call
	movq	%rax, -176(%rbp)
	cmpq	$0, -176(%rbp)
	sete	%al
	movzbl	%al, %eax
	testq	%rax, %rax
	je	.L283
	movq	__pyx_f(%rip), %rax
	movq	%rax, -104(%rbp)
	movl	$46, -108(%rbp)
	movl	$2068, -92(%rbp)
	jmp	.L260
.L283:
	movq	-168(%rbp), %rax
	movq	(%rax), %rax
	leaq	-1(%rax), %rdx
	movq	-168(%rbp), %rax
	movq	%rdx, (%rax)
	movq	-168(%rbp), %rax
	movq	(%rax), %rax
	testq	%rax, %rax
	jne	.L284
	movq	-168(%rbp), %rax
	movq	8(%rax), %rax
	movq	48(%rax), %rdx
	movq	-168(%rbp), %rax
	movq	%rax, %rdi
	call	*%rdx
.L284:
	movq	$0, -168(%rbp)
.L281:
	movq	-192(%rbp), %rax
	movq	(%rax), %rax
	leaq	-1(%rax), %rdx
	movq	-192(%rbp), %rax
	movq	%rdx, (%rax)
	movq	-192(%rbp), %rax
	movq	(%rax), %rax
	testq	%rax, %rax
	jne	.L285
	movq	-192(%rbp), %rax
	movq	8(%rax), %rax
	movq	48(%rax), %rdx
	movq	-192(%rbp), %rax
	movq	%rax, %rdi
	call	*%rdx
.L285:
	movq	$0, -192(%rbp)
	movq	-176(%rbp), %rax
	movq	%rax, -232(%rbp)
	movq	$0, -176(%rbp)
	movq	_Py_NoneStruct(%rip), %rax
	addq	$1, %rax
	movq	%rax, _Py_NoneStruct(%rip)
	movq	$_Py_NoneStruct, -224(%rbp)
	movq	-248(%rbp), %rax
	movq	8(%rax), %rax
	cmpq	$PyList_Type, %rax
	sete	%al
	movzbl	%al, %eax
	testq	%rax, %rax
	jne	.L286
	movq	-248(%rbp), %rax
	movq	8(%rax), %rax
	cmpq	$PyTuple_Type, %rax
	jne	.L287
.L286:
	movq	-248(%rbp), %rax
	movq	%rax, -176(%rbp)
	movq	-176(%rbp), %rax
	movq	(%rax), %rax
	leaq	1(%rax), %rdx
	movq	-176(%rbp), %rax
	movq	%rdx, (%rax)
	movq	$0, -152(%rbp)
	movq	$0, -136(%rbp)
	jmp	.L288
.L287:
	movq	$-1, -152(%rbp)
	movq	-248(%rbp), %rax
	movq	%rax, %rdi
	call	PyObject_GetIter
	movq	%rax, -176(%rbp)
	cmpq	$0, -176(%rbp)
	sete	%al
	movzbl	%al, %eax
	testq	%rax, %rax
	je	.L289
	movq	__pyx_f(%rip), %rax
	movq	%rax, -104(%rbp)
	movl	$50, -108(%rbp)
	movl	$2097, -92(%rbp)
	jmp	.L260
.L289:
	movq	-176(%rbp), %rax
	movq	8(%rax), %rax
	movq	224(%rax), %rax
	movq	%rax, -136(%rbp)
	cmpq	$0, -136(%rbp)
	sete	%al
	movzbl	%al, %eax
	testq	%rax, %rax
	je	.L288
	movq	__pyx_f(%rip), %rax
	movq	%rax, -104(%rbp)
	movl	$50, -108(%rbp)
	movl	$2099, -92(%rbp)
	jmp	.L260
.L288:
	cmpq	$0, -136(%rbp)
	sete	%al
	movzbl	%al, %eax
	testq	%rax, %rax
	je	.L290
	movq	-176(%rbp), %rax
	movq	8(%rax), %rax
	cmpq	$PyList_Type, %rax
	sete	%al
	movzbl	%al, %eax
	testq	%rax, %rax
	je	.L291
	movq	-176(%rbp), %rax
	movq	16(%rax), %rax
	cmpq	-152(%rbp), %rax
	jle	.L344
.L292:
	movq	-176(%rbp), %rax
	movq	24(%rax), %rax
	movq	-152(%rbp), %rdx
	salq	$3, %rdx
	addq	%rdx, %rax
	movq	(%rax), %rax
	movq	%rax, -192(%rbp)
	movq	-192(%rbp), %rax
	movq	(%rax), %rax
	leaq	1(%rax), %rdx
	movq	-192(%rbp), %rax
	movq	%rdx, (%rax)
	addq	$1, -152(%rbp)
	jmp	.L296
.L291:
	movq	-176(%rbp), %rax
	movq	16(%rax), %rax
	cmpq	-152(%rbp), %rax
	jle	.L345
.L295:
	movq	-176(%rbp), %rax
	movq	-152(%rbp), %rdx
	addq	$2, %rdx
	movq	8(%rax,%rdx,8), %rax
	movq	%rax, -192(%rbp)
	movq	-192(%rbp), %rax
	movq	(%rax), %rax
	leaq	1(%rax), %rdx
	movq	-192(%rbp), %rax
	movq	%rdx, (%rax)
	addq	$1, -152(%rbp)
	jmp	.L296
.L290:
	movq	-176(%rbp), %rax
	movq	-136(%rbp), %rdx
	movq	%rax, %rdi
	call	*%rdx
	movq	%rax, -192(%rbp)
	cmpq	$0, -192(%rbp)
	sete	%al
	movzbl	%al, %eax
	testq	%rax, %rax
	je	.L296
	call	PyErr_Occurred
	movq	%rax, -56(%rbp)
	cmpq	$0, -56(%rbp)
	je	.L346
	movq	PyExc_StopIteration(%rip), %rax
	cmpq	%rax, -56(%rbp)
	sete	%al
	movzbl	%al, %eax
	testq	%rax, %rax
	jne	.L298
	movq	PyExc_StopIteration(%rip), %rdx
	movq	-56(%rbp), %rax
	movq	%rdx, %rsi
	movq	%rax, %rdi
	call	PyErr_GivenExceptionMatches
	testl	%eax, %eax
	setne	%al
	movzbl	%al, %eax
	testq	%rax, %rax
	je	.L299
.L298:
	call	PyErr_Clear
	nop
	jmp	.L293
.L299:
	movq	__pyx_f(%rip), %rax
	movq	%rax, -104(%rbp)
	movl	$50, -108(%rbp)
	movl	$2124, -92(%rbp)
	jmp	.L260
.L296:
	movq	-216(%rbp), %rax
	movq	%rax, -48(%rbp)
	movq	-192(%rbp), %rax
	movq	%rax, -216(%rbp)
	cmpq	$0, -48(%rbp)
	je	.L300
	movq	-48(%rbp), %rax
	movq	(%rax), %rax
	leaq	-1(%rax), %rdx
	movq	-48(%rbp), %rax
	movq	%rdx, (%rax)
	movq	-48(%rbp), %rax
	movq	(%rax), %rax
	testq	%rax, %rax
	jne	.L300
	movq	-48(%rbp), %rax
	movq	8(%rax), %rax
	movq	48(%rax), %rdx
	movq	-48(%rbp), %rax
	movq	%rax, %rdi
	call	*%rdx
.L300:
	movq	$0, -192(%rbp)
	movq	-232(%rbp), %rax
	movq	8(%rax), %rax
	cmpq	$PyList_Type, %rax
	sete	%al
	movzbl	%al, %eax
	testq	%rax, %rax
	jne	.L301
	movq	-232(%rbp), %rax
	movq	8(%rax), %rax
	cmpq	$PyTuple_Type, %rax
	jne	.L302
.L301:
	movq	-232(%rbp), %rax
	movq	%rax, -192(%rbp)
	movq	-192(%rbp), %rax
	movq	(%rax), %rax
	leaq	1(%rax), %rdx
	movq	-192(%rbp), %rax
	movq	%rdx, (%rax)
	movq	$0, -128(%rbp)
	movq	$0, -120(%rbp)
	jmp	.L303
.L302:
	movq	$-1, -128(%rbp)
	movq	-232(%rbp), %rax
	movq	%rax, %rdi
	call	PyObject_GetIter
	movq	%rax, -192(%rbp)
	cmpq	$0, -192(%rbp)
	sete	%al
	movzbl	%al, %eax
	testq	%rax, %rax
	je	.L304
	movq	__pyx_f(%rip), %rax
	movq	%rax, -104(%rbp)
	movl	$51, -108(%rbp)
	movl	$2144, -92(%rbp)
	jmp	.L260
.L304:
	movq	-192(%rbp), %rax
	movq	8(%rax), %rax
	movq	224(%rax), %rax
	movq	%rax, -120(%rbp)
	cmpq	$0, -120(%rbp)
	sete	%al
	movzbl	%al, %eax
	testq	%rax, %rax
	je	.L303
	movq	__pyx_f(%rip), %rax
	movq	%rax, -104(%rbp)
	movl	$51, -108(%rbp)
	movl	$2146, -92(%rbp)
	jmp	.L260
.L350:
	nop
.L303:
	cmpq	$0, -120(%rbp)
	sete	%al
	movzbl	%al, %eax
	testq	%rax, %rax
	je	.L305
	movq	-192(%rbp), %rax
	movq	8(%rax), %rax
	cmpq	$PyList_Type, %rax
	sete	%al
	movzbl	%al, %eax
	testq	%rax, %rax
	je	.L306
	movq	-192(%rbp), %rax
	movq	16(%rax), %rax
	cmpq	-128(%rbp), %rax
	jle	.L347
.L307:
	movq	-192(%rbp), %rax
	movq	24(%rax), %rax
	movq	-128(%rbp), %rdx
	salq	$3, %rdx
	addq	%rdx, %rax
	movq	(%rax), %rax
	movq	%rax, -168(%rbp)
	movq	-168(%rbp), %rax
	movq	(%rax), %rax
	leaq	1(%rax), %rdx
	movq	-168(%rbp), %rax
	movq	%rdx, (%rax)
	addq	$1, -128(%rbp)
	jmp	.L311
.L306:
	movq	-192(%rbp), %rax
	movq	16(%rax), %rax
	cmpq	-128(%rbp), %rax
	jle	.L348
.L310:
	movq	-192(%rbp), %rax
	movq	-128(%rbp), %rdx
	addq	$2, %rdx
	movq	8(%rax,%rdx,8), %rax
	movq	%rax, -168(%rbp)
	movq	-168(%rbp), %rax
	movq	(%rax), %rax
	leaq	1(%rax), %rdx
	movq	-168(%rbp), %rax
	movq	%rdx, (%rax)
	addq	$1, -128(%rbp)
	jmp	.L311
.L305:
	movq	-192(%rbp), %rax
	movq	-120(%rbp), %rdx
	movq	%rax, %rdi
	call	*%rdx
	movq	%rax, -168(%rbp)
	cmpq	$0, -168(%rbp)
	sete	%al
	movzbl	%al, %eax
	testq	%rax, %rax
	je	.L311
	call	PyErr_Occurred
	movq	%rax, -40(%rbp)
	cmpq	$0, -40(%rbp)
	je	.L349
	movq	PyExc_StopIteration(%rip), %rax
	cmpq	%rax, -40(%rbp)
	sete	%al
	movzbl	%al, %eax
	testq	%rax, %rax
	jne	.L313
	movq	PyExc_StopIteration(%rip), %rdx
	movq	-40(%rbp), %rax
	movq	%rdx, %rsi
	movq	%rax, %rdi
	call	PyErr_GivenExceptionMatches
	testl	%eax, %eax
	setne	%al
	movzbl	%al, %eax
	testq	%rax, %rax
	je	.L314
.L313:
	call	PyErr_Clear
	nop
	jmp	.L308
.L314:
	movq	__pyx_f(%rip), %rax
	movq	%rax, -104(%rbp)
	movl	$51, -108(%rbp)
	movl	$2171, -92(%rbp)
	jmp	.L260
.L311:
	movq	-208(%rbp), %rax
	movq	%rax, -32(%rbp)
	movq	-168(%rbp), %rax
	movq	%rax, -208(%rbp)
	cmpq	$0, -32(%rbp)
	je	.L315
	movq	-32(%rbp), %rax
	movq	(%rax), %rax
	leaq	-1(%rax), %rdx
	movq	-32(%rbp), %rax
	movq	%rdx, (%rax)
	movq	-32(%rbp), %rax
	movq	(%rax), %rax
	testq	%rax, %rax
	jne	.L315
	movq	-32(%rbp), %rax
	movq	8(%rax), %rax
	movq	48(%rax), %rdx
	movq	-32(%rbp), %rax
	movq	%rax, %rdi
	call	*%rdx
.L315:
	movq	$0, -168(%rbp)
	movl	$1, %edi
	call	PyList_New
	movq	%rax, -168(%rbp)
	cmpq	$0, -168(%rbp)
	sete	%al
	movzbl	%al, %eax
	testq	%rax, %rax
	je	.L316
	movq	__pyx_f(%rip), %rax
	movq	%rax, -104(%rbp)
	movl	$52, -108(%rbp)
	movl	$2187, -92(%rbp)
	jmp	.L260
.L316:
	movq	-208(%rbp), %rax
	movq	(%rax), %rax
	leaq	1(%rax), %rdx
	movq	-208(%rbp), %rax
	movq	%rdx, (%rax)
	movq	-168(%rbp), %rax
	movq	24(%rax), %rax
	movq	-208(%rbp), %rdx
	movq	%rdx, (%rax)
	movq	-168(%rbp), %rdx
	movq	-216(%rbp), %rax
	movq	%rdx, %rsi
	movq	%rax, %rdi
	call	PyNumber_Add
	movq	%rax, -144(%rbp)
	cmpq	$0, -144(%rbp)
	sete	%al
	movzbl	%al, %eax
	testq	%rax, %rax
	je	.L317
	movq	__pyx_f(%rip), %rax
	movq	%rax, -104(%rbp)
	movl	$52, -108(%rbp)
	movl	$2192, -92(%rbp)
	jmp	.L260
.L317:
	movq	-168(%rbp), %rax
	movq	(%rax), %rax
	leaq	-1(%rax), %rdx
	movq	-168(%rbp), %rax
	movq	%rdx, (%rax)
	movq	-168(%rbp), %rax
	movq	(%rax), %rax
	testq	%rax, %rax
	jne	.L318
	movq	-168(%rbp), %rax
	movq	8(%rax), %rax
	movq	48(%rax), %rdx
	movq	-168(%rbp), %rax
	movq	%rax, %rdi
	call	*%rdx
.L318:
	movq	$0, -168(%rbp)
	movq	-224(%rbp), %rax
	movq	%rax, -24(%rbp)
	movq	-144(%rbp), %rax
	movq	%rax, -224(%rbp)
	movq	-24(%rbp), %rax
	movq	(%rax), %rax
	leaq	-1(%rax), %rdx
	movq	-24(%rbp), %rax
	movq	%rdx, (%rax)
	movq	-24(%rbp), %rax
	movq	(%rax), %rax
	testq	%rax, %rax
	jne	.L319
	movq	-24(%rbp), %rax
	movq	8(%rax), %rax
	movq	48(%rax), %rdx
	movq	-24(%rbp), %rax
	movq	%rax, %rdi
	call	*%rdx
.L319:
	movq	$0, -144(%rbp)
	movq	__pyx_n_s_sort(%rip), %rdx
	movq	-224(%rbp), %rax
	movq	%rdx, %rsi
	movq	%rax, %rdi
	call	__Pyx_PyObject_GetAttrStr
	movq	%rax, -168(%rbp)
	cmpq	$0, -168(%rbp)
	sete	%al
	movzbl	%al, %eax
	testq	%rax, %rax
	je	.L320
	movq	__pyx_f(%rip), %rax
	movq	%rax, -104(%rbp)
	movl	$53, -108(%rbp)
	movl	$2205, -92(%rbp)
	jmp	.L260
.L320:
	movq	$0, -160(%rbp)
	movq	-168(%rbp), %rax
	movq	8(%rax), %rax
	cmpq	$PyMethod_Type, %rax
	sete	%al
	movzbl	%al, %eax
	testq	%rax, %rax
	je	.L321
	movq	-168(%rbp), %rax
	movq	24(%rax), %rax
	movq	%rax, -160(%rbp)
	cmpq	$0, -160(%rbp)
	setne	%al
	movzbl	%al, %eax
	testq	%rax, %rax
	je	.L321
	movq	-168(%rbp), %rax
	movq	16(%rax), %rax
	movq	%rax, -16(%rbp)
	movq	-160(%rbp), %rax
	movq	(%rax), %rax
	leaq	1(%rax), %rdx
	movq	-160(%rbp), %rax
	movq	%rdx, (%rax)
	movq	-16(%rbp), %rax
	movq	(%rax), %rax
	leaq	1(%rax), %rdx
	movq	-16(%rbp), %rax
	movq	%rdx, (%rax)
	movq	-168(%rbp), %rax
	movq	%rax, -8(%rbp)
	movq	-16(%rbp), %rax
	movq	%rax, -168(%rbp)
	movq	-8(%rbp), %rax
	movq	(%rax), %rax
	leaq	-1(%rax), %rdx
	movq	-8(%rbp), %rax
	movq	%rdx, (%rax)
	movq	-8(%rbp), %rax
	movq	(%rax), %rax
	testq	%rax, %rax
	jne	.L321
	movq	-8(%rbp), %rax
	movq	8(%rax), %rax
	movq	48(%rax), %rdx
	movq	-8(%rbp), %rax
	movq	%rax, %rdi
	call	*%rdx
.L321:
	cmpq	$0, -160(%rbp)
	je	.L322
	movq	-160(%rbp), %rdx
	movq	-168(%rbp), %rax
	movq	%rdx, %rsi
	movq	%rax, %rdi
	call	__Pyx_PyObject_CallOneArg
	movq	%rax, -144(%rbp)
	cmpq	$0, -144(%rbp)
	sete	%al
	movzbl	%al, %eax
	testq	%rax, %rax
	je	.L323
	movq	__pyx_f(%rip), %rax
	movq	%rax, -104(%rbp)
	movl	$53, -108(%rbp)
	movl	$2218, -92(%rbp)
	jmp	.L260
.L323:
	movq	-160(%rbp), %rax
	movq	(%rax), %rax
	leaq	-1(%rax), %rdx
	movq	-160(%rbp), %rax
	movq	%rdx, (%rax)
	movq	-160(%rbp), %rax
	movq	(%rax), %rax
	testq	%rax, %rax
	jne	.L324
	movq	-160(%rbp), %rax
	movq	8(%rax), %rax
	movq	48(%rax), %rdx
	movq	-160(%rbp), %rax
	movq	%rax, %rdi
	call	*%rdx
.L324:
	movq	$0, -160(%rbp)
	jmp	.L325
.L322:
	movq	-168(%rbp), %rax
	movq	%rax, %rdi
	call	__Pyx_PyObject_CallNoArg
	movq	%rax, -144(%rbp)
	cmpq	$0, -144(%rbp)
	sete	%al
	movzbl	%al, %eax
	testq	%rax, %rax
	je	.L325
	movq	__pyx_f(%rip), %rax
	movq	%rax, -104(%rbp)
	movl	$53, -108(%rbp)
	movl	$2221, -92(%rbp)
	jmp	.L260
.L325:
	movq	-168(%rbp), %rax
	movq	(%rax), %rax
	leaq	-1(%rax), %rdx
	movq	-168(%rbp), %rax
	movq	%rdx, (%rax)
	movq	-168(%rbp), %rax
	movq	(%rax), %rax
	testq	%rax, %rax
	jne	.L326
	movq	-168(%rbp), %rax
	movq	8(%rax), %rax
	movq	48(%rax), %rdx
	movq	-168(%rbp), %rax
	movq	%rax, %rdi
	call	*%rdx
.L326:
	movq	$0, -168(%rbp)
	movq	-144(%rbp), %rax
	movq	(%rax), %rax
	leaq	-1(%rax), %rdx
	movq	-144(%rbp), %rax
	movq	%rdx, (%rax)
	movq	-144(%rbp), %rax
	movq	(%rax), %rax
	testq	%rax, %rax
	jne	.L327
	movq	-144(%rbp), %rax
	movq	8(%rax), %rax
	movq	48(%rax), %rdx
	movq	-144(%rbp), %rax
	movq	%rax, %rdi
	call	*%rdx
.L327:
	movq	$0, -144(%rbp)
	movq	-224(%rbp), %rdx
	movq	-240(%rbp), %rax
	movq	%rdx, %rsi
	movq	%rax, %rdi
	call	__Pyx_PyList_Append
	movl	%eax, -112(%rbp)
	cmpl	$-1, -112(%rbp)
	sete	%al
	movzbl	%al, %eax
	testq	%rax, %rax
	je	.L350
	movq	__pyx_f(%rip), %rax
	movq	%rax, -104(%rbp)
	movl	$54, -108(%rbp)
	movl	$2234, -92(%rbp)
	jmp	.L260
.L347:
	nop
	jmp	.L308
.L348:
	nop
	jmp	.L308
.L349:
	nop
.L308:
	movq	-192(%rbp), %rax
	movq	(%rax), %rax
	leaq	-1(%rax), %rdx
	movq	-192(%rbp), %rax
	movq	%rdx, (%rax)
	movq	-192(%rbp), %rax
	movq	(%rax), %rax
	testq	%rax, %rax
	jne	.L329
	movq	-192(%rbp), %rax
	movq	8(%rax), %rax
	movq	48(%rax), %rdx
	movq	-192(%rbp), %rax
	movq	%rax, %rdi
	call	*%rdx
.L329:
	movq	$0, -192(%rbp)
	jmp	.L288
.L344:
	nop
	jmp	.L293
.L345:
	nop
	jmp	.L293
.L346:
	nop
.L293:
	movq	-176(%rbp), %rax
	movq	(%rax), %rax
	leaq	-1(%rax), %rdx
	movq	-176(%rbp), %rax
	movq	%rdx, (%rax)
	movq	-176(%rbp), %rax
	movq	(%rax), %rax
	testq	%rax, %rax
	jne	.L330
	movq	-176(%rbp), %rax
	movq	8(%rax), %rax
	movq	48(%rax), %rdx
	movq	-176(%rbp), %rax
	movq	%rax, %rdi
	call	*%rdx
.L330:
	movq	$0, -176(%rbp)
	cmpq	$0, -200(%rbp)
	je	.L331
	movq	-200(%rbp), %rax
	movq	(%rax), %rax
	leaq	-1(%rax), %rdx
	movq	-200(%rbp), %rax
	movq	%rdx, (%rax)
	movq	-200(%rbp), %rax
	movq	(%rax), %rax
	testq	%rax, %rax
	jne	.L331
	movq	-200(%rbp), %rax
	movq	8(%rax), %rax
	movq	48(%rax), %rdx
	movq	-200(%rbp), %rax
	movq	%rax, %rdi
	call	*%rdx
.L331:
	movq	-240(%rbp), %rax
	movq	(%rax), %rax
	leaq	1(%rax), %rdx
	movq	-240(%rbp), %rax
	movq	%rdx, (%rax)
	movq	-240(%rbp), %rax
	movq	%rax, -200(%rbp)
	jmp	.L267
.L260:
	cmpq	$0, -192(%rbp)
	je	.L332
	movq	-192(%rbp), %rax
	movq	(%rax), %rax
	leaq	-1(%rax), %rdx
	movq	-192(%rbp), %rax
	movq	%rdx, (%rax)
	movq	-192(%rbp), %rax
	movq	(%rax), %rax
	testq	%rax, %rax
	jne	.L332
	movq	-192(%rbp), %rax
	movq	8(%rax), %rax
	movq	48(%rax), %rdx
	movq	-192(%rbp), %rax
	movq	%rax, %rdi
	call	*%rdx
.L332:
	cmpq	$0, -176(%rbp)
	je	.L333
	movq	-176(%rbp), %rax
	movq	(%rax), %rax
	leaq	-1(%rax), %rdx
	movq	-176(%rbp), %rax
	movq	%rdx, (%rax)
	movq	-176(%rbp), %rax
	movq	(%rax), %rax
	testq	%rax, %rax
	jne	.L333
	movq	-176(%rbp), %rax
	movq	8(%rax), %rax
	movq	48(%rax), %rdx
	movq	-176(%rbp), %rax
	movq	%rax, %rdi
	call	*%rdx
.L333:
	cmpq	$0, -168(%rbp)
	je	.L334
	movq	-168(%rbp), %rax
	movq	(%rax), %rax
	leaq	-1(%rax), %rdx
	movq	-168(%rbp), %rax
	movq	%rdx, (%rax)
	movq	-168(%rbp), %rax
	movq	(%rax), %rax
	testq	%rax, %rax
	jne	.L334
	movq	-168(%rbp), %rax
	movq	8(%rax), %rax
	movq	48(%rax), %rdx
	movq	-168(%rbp), %rax
	movq	%rax, %rdi
	call	*%rdx
.L334:
	cmpq	$0, -160(%rbp)
	je	.L335
	movq	-160(%rbp), %rax
	movq	(%rax), %rax
	leaq	-1(%rax), %rdx
	movq	-160(%rbp), %rax
	movq	%rdx, (%rax)
	movq	-160(%rbp), %rax
	movq	(%rax), %rax
	testq	%rax, %rax
	jne	.L335
	movq	-160(%rbp), %rax
	movq	8(%rax), %rax
	movq	48(%rax), %rdx
	movq	-160(%rbp), %rax
	movq	%rax, %rdi
	call	*%rdx
.L335:
	cmpq	$0, -144(%rbp)
	je	.L336
	movq	-144(%rbp), %rax
	movq	(%rax), %rax
	leaq	-1(%rax), %rdx
	movq	-144(%rbp), %rax
	movq	%rdx, (%rax)
	movq	-144(%rbp), %rax
	movq	(%rax), %rax
	testq	%rax, %rax
	jne	.L336
	movq	-144(%rbp), %rax
	movq	8(%rax), %rax
	movq	48(%rax), %rdx
	movq	-144(%rbp), %rax
	movq	%rax, %rdi
	call	*%rdx
.L336:
	movq	-104(%rbp), %rcx
	movl	-108(%rbp), %edx
	movl	-92(%rbp), %eax
	movl	%eax, %esi
	movl	$.LC17, %edi
	call	__Pyx_AddTraceback
	movq	$0, -200(%rbp)
.L267:
	cmpq	$0, -248(%rbp)
	je	.L337
	movq	-248(%rbp), %rax
	movq	(%rax), %rax
	leaq	-1(%rax), %rdx
	movq	-248(%rbp), %rax
	movq	%rdx, (%rax)
	movq	-248(%rbp), %rax
	movq	(%rax), %rax
	testq	%rax, %rax
	jne	.L337
	movq	-248(%rbp), %rax
	movq	8(%rax), %rax
	movq	48(%rax), %rdx
	movq	-248(%rbp), %rax
	movq	%rax, %rdi
	call	*%rdx
.L337:
	cmpq	$0, -240(%rbp)
	je	.L338
	movq	-240(%rbp), %rax
	movq	(%rax), %rax
	leaq	-1(%rax), %rdx
	movq	-240(%rbp), %rax
	movq	%rdx, (%rax)
	movq	-240(%rbp), %rax
	movq	(%rax), %rax
	testq	%rax, %rax
	jne	.L338
	movq	-240(%rbp), %rax
	movq	8(%rax), %rax
	movq	48(%rax), %rdx
	movq	-240(%rbp), %rax
	movq	%rax, %rdi
	call	*%rdx
.L338:
	cmpq	$0, -232(%rbp)
	je	.L339
	movq	-232(%rbp), %rax
	movq	(%rax), %rax
	leaq	-1(%rax), %rdx
	movq	-232(%rbp), %rax
	movq	%rdx, (%rax)
	movq	-232(%rbp), %rax
	movq	(%rax), %rax
	testq	%rax, %rax
	jne	.L339
	movq	-232(%rbp), %rax
	movq	8(%rax), %rax
	movq	48(%rax), %rdx
	movq	-232(%rbp), %rax
	movq	%rax, %rdi
	call	*%rdx
.L339:
	cmpq	$0, -224(%rbp)
	je	.L340
	movq	-224(%rbp), %rax
	movq	(%rax), %rax
	leaq	-1(%rax), %rdx
	movq	-224(%rbp), %rax
	movq	%rdx, (%rax)
	movq	-224(%rbp), %rax
	movq	(%rax), %rax
	testq	%rax, %rax
	jne	.L340
	movq	-224(%rbp), %rax
	movq	8(%rax), %rax
	movq	48(%rax), %rdx
	movq	-224(%rbp), %rax
	movq	%rax, %rdi
	call	*%rdx
.L340:
	cmpq	$0, -216(%rbp)
	je	.L341
	movq	-216(%rbp), %rax
	movq	(%rax), %rax
	leaq	-1(%rax), %rdx
	movq	-216(%rbp), %rax
	movq	%rdx, (%rax)
	movq	-216(%rbp), %rax
	movq	(%rax), %rax
	testq	%rax, %rax
	jne	.L341
	movq	-216(%rbp), %rax
	movq	8(%rax), %rax
	movq	48(%rax), %rdx
	movq	-216(%rbp), %rax
	movq	%rax, %rdi
	call	*%rdx
.L341:
	cmpq	$0, -208(%rbp)
	je	.L342
	movq	-208(%rbp), %rax
	movq	(%rax), %rax
	leaq	-1(%rax), %rdx
	movq	-208(%rbp), %rax
	movq	%rdx, (%rax)
	movq	-208(%rbp), %rax
	movq	(%rax), %rax
	testq	%rax, %rax
	jne	.L342
	movq	-208(%rbp), %rax
	movq	8(%rax), %rax
	movq	48(%rax), %rdx
	movq	-208(%rbp), %rax
	movq	%rax, %rdi
	call	*%rdx
.L342:
	movq	-200(%rbp), %rax
	leave
	.cfi_def_cfa 7, 8
	ret
	.cfi_endproc
.LFE18:
	.size	__pyx_pf_8friedman_2generateAllKSets, .-__pyx_pf_8friedman_2generateAllKSets
	.section	.rodata
.LC18:
	.string	"generateAllFractions"
	.data
	.align 32
	.type	__pyx_mdef_8friedman_5generateAllFractions, @object
	.size	__pyx_mdef_8friedman_5generateAllFractions, 32
__pyx_mdef_8friedman_5generateAllFractions:
	.quad	.LC18
	.quad	__pyx_pw_8friedman_5generateAllFractions
	.long	8
	.zero	4
	.quad	0
	.text
	.type	__pyx_pw_8friedman_5generateAllFractions, @function
__pyx_pw_8friedman_5generateAllFractions:
.LFB19:
	.cfi_startproc
	pushq	%rbp
	.cfi_def_cfa_offset 16
	.cfi_offset 6, -16
	movq	%rsp, %rbp
	.cfi_def_cfa_register 6
	subq	$32, %rsp
	movq	%rdi, -24(%rbp)
	movq	%rsi, -32(%rbp)
	movq	$0, -8(%rbp)
	movq	-32(%rbp), %rdx
	movq	-24(%rbp), %rax
	movq	%rdx, %rsi
	movq	%rax, %rdi
	call	__pyx_pf_8friedman_4generateAllFractions
	movq	%rax, -8(%rbp)
	movq	-8(%rbp), %rax
	leave
	.cfi_def_cfa 7, 8
	ret
	.cfi_endproc
.LFE19:
	.size	__pyx_pw_8friedman_5generateAllFractions, .-__pyx_pw_8friedman_5generateAllFractions
	.section	.rodata
.LC19:
	.string	"friedman.generateAllFractions"
	.text
	.type	__pyx_pf_8friedman_4generateAllFractions, @function
__pyx_pf_8friedman_4generateAllFractions:
.LFB20:
	.cfi_startproc
	pushq	%rbp
	.cfi_def_cfa_offset 16
	.cfi_offset 6, -16
	movq	%rsp, %rbp
	.cfi_def_cfa_register 6
	subq	$240, %rsp
	movq	%rdi, -232(%rbp)
	movq	%rsi, -240(%rbp)
	movq	$0, -224(%rbp)
	movq	$0, -216(%rbp)
	movq	$0, -208(%rbp)
	movq	$0, -200(%rbp)
	movq	$0, -192(%rbp)
	movq	$0, -184(%rbp)
	movq	$0, -160(%rbp)
	movq	$0, -136(%rbp)
	movq	$0, -128(%rbp)
	movq	$0, -112(%rbp)
	movq	$0, -96(%rbp)
	movl	$0, -84(%rbp)
	movq	$0, -80(%rbp)
	movl	$0, -68(%rbp)
	movl	$0, %edi
	call	PyList_New
	movq	%rax, -192(%rbp)
	cmpq	$0, -192(%rbp)
	sete	%al
	movzbl	%al, %eax
	testq	%rax, %rax
	je	.L354
	movq	__pyx_f(%rip), %rax
	movq	%rax, -80(%rbp)
	movl	$61, -84(%rbp)
	movl	$2350, -68(%rbp)
	jmp	.L355
.L354:
	movq	-192(%rbp), %rax
	movq	%rax, -224(%rbp)
	movq	$0, -192(%rbp)
	movl	$1, %edi
	call	PyTuple_New
	movq	%rax, -192(%rbp)
	cmpq	$0, -192(%rbp)
	sete	%al
	movzbl	%al, %eax
	testq	%rax, %rax
	je	.L356
	movq	__pyx_f(%rip), %rax
	movq	%rax, -80(%rbp)
	movl	$62, -84(%rbp)
	movl	$2362, -68(%rbp)
	jmp	.L355
.L356:
	movq	-240(%rbp), %rax
	movq	(%rax), %rax
	leaq	1(%rax), %rdx
	movq	-240(%rbp), %rax
	movq	%rdx, (%rax)
	movq	-192(%rbp), %rax
	movq	-240(%rbp), %rdx
	movq	%rdx, 24(%rax)
	movq	__pyx_builtin_range(%rip), %rax
	movq	-192(%rbp), %rcx
	movl	$0, %edx
	movq	%rcx, %rsi
	movq	%rax, %rdi
	call	__Pyx_PyObject_Call
	movq	%rax, -184(%rbp)
	cmpq	$0, -184(%rbp)
	sete	%al
	movzbl	%al, %eax
	testq	%rax, %rax
	je	.L357
	movq	__pyx_f(%rip), %rax
	movq	%rax, -80(%rbp)
	movl	$62, -84(%rbp)
	movl	$2367, -68(%rbp)
	jmp	.L355
.L357:
	movq	-192(%rbp), %rax
	movq	(%rax), %rax
	leaq	-1(%rax), %rdx
	movq	-192(%rbp), %rax
	movq	%rdx, (%rax)
	movq	-192(%rbp), %rax
	movq	(%rax), %rax
	testq	%rax, %rax
	jne	.L358
	movq	-192(%rbp), %rax
	movq	8(%rax), %rax
	movq	48(%rax), %rdx
	movq	-192(%rbp), %rax
	movq	%rax, %rdi
	call	*%rdx
.L358:
	movq	$0, -192(%rbp)
	movq	-184(%rbp), %rax
	movq	8(%rax), %rax
	cmpq	$PyList_Type, %rax
	sete	%al
	movzbl	%al, %eax
	testq	%rax, %rax
	jne	.L359
	movq	-184(%rbp), %rax
	movq	8(%rax), %rax
	cmpq	$PyTuple_Type, %rax
	jne	.L360
.L359:
	movq	-184(%rbp), %rax
	movq	%rax, -192(%rbp)
	movq	-192(%rbp), %rax
	movq	(%rax), %rax
	leaq	1(%rax), %rdx
	movq	-192(%rbp), %rax
	movq	%rdx, (%rax)
	movq	$0, -176(%rbp)
	movq	$0, -168(%rbp)
	jmp	.L361
.L360:
	movq	$-1, -176(%rbp)
	movq	-184(%rbp), %rax
	movq	%rax, %rdi
	call	PyObject_GetIter
	movq	%rax, -192(%rbp)
	cmpq	$0, -192(%rbp)
	sete	%al
	movzbl	%al, %eax
	testq	%rax, %rax
	je	.L362
	movq	__pyx_f(%rip), %rax
	movq	%rax, -80(%rbp)
	movl	$62, -84(%rbp)
	movl	$2374, -68(%rbp)
	jmp	.L355
.L362:
	movq	-192(%rbp), %rax
	movq	8(%rax), %rax
	movq	224(%rax), %rax
	movq	%rax, -168(%rbp)
	cmpq	$0, -168(%rbp)
	sete	%al
	movzbl	%al, %eax
	testq	%rax, %rax
	je	.L361
	movq	__pyx_f(%rip), %rax
	movq	%rax, -80(%rbp)
	movl	$62, -84(%rbp)
	movl	$2376, -68(%rbp)
	jmp	.L355
.L361:
	movq	-184(%rbp), %rax
	movq	(%rax), %rax
	leaq	-1(%rax), %rdx
	movq	-184(%rbp), %rax
	movq	%rdx, (%rax)
	movq	-184(%rbp), %rax
	movq	(%rax), %rax
	testq	%rax, %rax
	jne	.L363
	movq	-184(%rbp), %rax
	movq	8(%rax), %rax
	movq	48(%rax), %rdx
	movq	-184(%rbp), %rax
	movq	%rax, %rdi
	call	*%rdx
.L363:
	movq	$0, -184(%rbp)
.L417:
	cmpq	$0, -168(%rbp)
	sete	%al
	movzbl	%al, %eax
	testq	%rax, %rax
	je	.L364
	movq	-192(%rbp), %rax
	movq	8(%rax), %rax
	cmpq	$PyList_Type, %rax
	sete	%al
	movzbl	%al, %eax
	testq	%rax, %rax
	je	.L365
	movq	-192(%rbp), %rax
	movq	16(%rax), %rax
	cmpq	-176(%rbp), %rax
	jle	.L432
.L366:
	movq	-192(%rbp), %rax
	movq	24(%rax), %rax
	movq	-176(%rbp), %rdx
	salq	$3, %rdx
	addq	%rdx, %rax
	movq	(%rax), %rax
	movq	%rax, -184(%rbp)
	movq	-184(%rbp), %rax
	movq	(%rax), %rax
	leaq	1(%rax), %rdx
	movq	-184(%rbp), %rax
	movq	%rdx, (%rax)
	addq	$1, -176(%rbp)
	jmp	.L370
.L365:
	movq	-192(%rbp), %rax
	movq	16(%rax), %rax
	cmpq	-176(%rbp), %rax
	jle	.L433
.L369:
	movq	-192(%rbp), %rax
	movq	-176(%rbp), %rdx
	addq	$2, %rdx
	movq	8(%rax,%rdx,8), %rax
	movq	%rax, -184(%rbp)
	movq	-184(%rbp), %rax
	movq	(%rax), %rax
	leaq	1(%rax), %rdx
	movq	-184(%rbp), %rax
	movq	%rdx, (%rax)
	addq	$1, -176(%rbp)
	jmp	.L370
.L364:
	movq	-192(%rbp), %rax
	movq	-168(%rbp), %rdx
	movq	%rax, %rdi
	call	*%rdx
	movq	%rax, -184(%rbp)
	cmpq	$0, -184(%rbp)
	sete	%al
	movzbl	%al, %eax
	testq	%rax, %rax
	je	.L370
	call	PyErr_Occurred
	movq	%rax, -64(%rbp)
	cmpq	$0, -64(%rbp)
	je	.L434
	movq	PyExc_StopIteration(%rip), %rax
	cmpq	%rax, -64(%rbp)
	sete	%al
	movzbl	%al, %eax
	testq	%rax, %rax
	jne	.L372
	movq	PyExc_StopIteration(%rip), %rdx
	movq	-64(%rbp), %rax
	movq	%rdx, %rsi
	movq	%rax, %rdi
	call	PyErr_GivenExceptionMatches
	testl	%eax, %eax
	setne	%al
	movzbl	%al, %eax
	testq	%rax, %rax
	je	.L373
.L372:
	call	PyErr_Clear
	nop
	jmp	.L367
.L373:
	movq	__pyx_f(%rip), %rax
	movq	%rax, -80(%rbp)
	movl	$62, -84(%rbp)
	movl	$2402, -68(%rbp)
	jmp	.L355
.L370:
	movq	-216(%rbp), %rax
	movq	%rax, -56(%rbp)
	movq	-184(%rbp), %rax
	movq	%rax, -216(%rbp)
	cmpq	$0, -56(%rbp)
	je	.L374
	movq	-56(%rbp), %rax
	movq	(%rax), %rax
	leaq	-1(%rax), %rdx
	movq	-56(%rbp), %rax
	movq	%rdx, (%rax)
	movq	-56(%rbp), %rax
	movq	(%rax), %rax
	testq	%rax, %rax
	jne	.L374
	movq	-56(%rbp), %rax
	movq	8(%rax), %rax
	movq	48(%rax), %rdx
	movq	-56(%rbp), %rax
	movq	%rax, %rdi
	call	*%rdx
.L374:
	movq	$0, -184(%rbp)
	movl	$2, %edi
	call	PyTuple_New
	movq	%rax, -184(%rbp)
	cmpq	$0, -184(%rbp)
	sete	%al
	movzbl	%al, %eax
	testq	%rax, %rax
	je	.L375
	movq	__pyx_f(%rip), %rax
	movq	%rax, -80(%rbp)
	movl	$63, -84(%rbp)
	movl	$2418, -68(%rbp)
	jmp	.L355
.L375:
	movq	__pyx_int_1(%rip), %rax
	movq	(%rax), %rdx
	addq	$1, %rdx
	movq	%rdx, (%rax)
	movq	-184(%rbp), %rax
	movq	__pyx_int_1(%rip), %rdx
	movq	%rdx, 24(%rax)
	movq	-240(%rbp), %rax
	movq	(%rax), %rax
	leaq	1(%rax), %rdx
	movq	-240(%rbp), %rax
	movq	%rdx, (%rax)
	movq	-184(%rbp), %rax
	movq	-240(%rbp), %rdx
	movq	%rdx, 32(%rax)
	movq	__pyx_builtin_range(%rip), %rax
	movq	-184(%rbp), %rcx
	movl	$0, %edx
	movq	%rcx, %rsi
	movq	%rax, %rdi
	call	__Pyx_PyObject_Call
	movq	%rax, -160(%rbp)
	cmpq	$0, -160(%rbp)
	sete	%al
	movzbl	%al, %eax
	testq	%rax, %rax
	je	.L376
	movq	__pyx_f(%rip), %rax
	movq	%rax, -80(%rbp)
	movl	$63, -84(%rbp)
	movl	$2426, -68(%rbp)
	jmp	.L355
.L376:
	movq	-184(%rbp), %rax
	movq	(%rax), %rax
	leaq	-1(%rax), %rdx
	movq	-184(%rbp), %rax
	movq	%rdx, (%rax)
	movq	-184(%rbp), %rax
	movq	(%rax), %rax
	testq	%rax, %rax
	jne	.L377
	movq	-184(%rbp), %rax
	movq	8(%rax), %rax
	movq	48(%rax), %rdx
	movq	-184(%rbp), %rax
	movq	%rax, %rdi
	call	*%rdx
.L377:
	movq	$0, -184(%rbp)
	movq	-160(%rbp), %rax
	movq	8(%rax), %rax
	cmpq	$PyList_Type, %rax
	sete	%al
	movzbl	%al, %eax
	testq	%rax, %rax
	jne	.L378
	movq	-160(%rbp), %rax
	movq	8(%rax), %rax
	cmpq	$PyTuple_Type, %rax
	jne	.L379
.L378:
	movq	-160(%rbp), %rax
	movq	%rax, -184(%rbp)
	movq	-184(%rbp), %rax
	movq	(%rax), %rax
	leaq	1(%rax), %rdx
	movq	-184(%rbp), %rax
	movq	%rdx, (%rax)
	movq	$0, -152(%rbp)
	movq	$0, -144(%rbp)
	jmp	.L380
.L379:
	movq	$-1, -152(%rbp)
	movq	-160(%rbp), %rax
	movq	%rax, %rdi
	call	PyObject_GetIter
	movq	%rax, -184(%rbp)
	cmpq	$0, -184(%rbp)
	sete	%al
	movzbl	%al, %eax
	testq	%rax, %rax
	je	.L381
	movq	__pyx_f(%rip), %rax
	movq	%rax, -80(%rbp)
	movl	$63, -84(%rbp)
	movl	$2433, -68(%rbp)
	jmp	.L355
.L381:
	movq	-184(%rbp), %rax
	movq	8(%rax), %rax
	movq	224(%rax), %rax
	movq	%rax, -144(%rbp)
	cmpq	$0, -144(%rbp)
	sete	%al
	movzbl	%al, %eax
	testq	%rax, %rax
	je	.L380
	movq	__pyx_f(%rip), %rax
	movq	%rax, -80(%rbp)
	movl	$63, -84(%rbp)
	movl	$2435, -68(%rbp)
	jmp	.L355
.L380:
	movq	-160(%rbp), %rax
	movq	(%rax), %rax
	leaq	-1(%rax), %rdx
	movq	-160(%rbp), %rax
	movq	%rdx, (%rax)
	movq	-160(%rbp), %rax
	movq	(%rax), %rax
	testq	%rax, %rax
	jne	.L382
	movq	-160(%rbp), %rax
	movq	8(%rax), %rax
	movq	48(%rax), %rdx
	movq	-160(%rbp), %rax
	movq	%rax, %rdi
	call	*%rdx
.L382:
	movq	$0, -160(%rbp)
.L415:
	cmpq	$0, -144(%rbp)
	sete	%al
	movzbl	%al, %eax
	testq	%rax, %rax
	je	.L383
	movq	-184(%rbp), %rax
	movq	8(%rax), %rax
	cmpq	$PyList_Type, %rax
	sete	%al
	movzbl	%al, %eax
	testq	%rax, %rax
	je	.L384
	movq	-184(%rbp), %rax
	movq	16(%rax), %rax
	cmpq	-152(%rbp), %rax
	jle	.L435
.L385:
	movq	-184(%rbp), %rax
	movq	24(%rax), %rax
	movq	-152(%rbp), %rdx
	salq	$3, %rdx
	addq	%rdx, %rax
	movq	(%rax), %rax
	movq	%rax, -160(%rbp)
	movq	-160(%rbp), %rax
	movq	(%rax), %rax
	leaq	1(%rax), %rdx
	movq	-160(%rbp), %rax
	movq	%rdx, (%rax)
	addq	$1, -152(%rbp)
	jmp	.L389
.L384:
	movq	-184(%rbp), %rax
	movq	16(%rax), %rax
	cmpq	-152(%rbp), %rax
	jle	.L436
.L388:
	movq	-184(%rbp), %rax
	movq	-152(%rbp), %rdx
	addq	$2, %rdx
	movq	8(%rax,%rdx,8), %rax
	movq	%rax, -160(%rbp)
	movq	-160(%rbp), %rax
	movq	(%rax), %rax
	leaq	1(%rax), %rdx
	movq	-160(%rbp), %rax
	movq	%rdx, (%rax)
	addq	$1, -152(%rbp)
	jmp	.L389
.L383:
	movq	-184(%rbp), %rax
	movq	-144(%rbp), %rdx
	movq	%rax, %rdi
	call	*%rdx
	movq	%rax, -160(%rbp)
	cmpq	$0, -160(%rbp)
	sete	%al
	movzbl	%al, %eax
	testq	%rax, %rax
	je	.L389
	call	PyErr_Occurred
	movq	%rax, -48(%rbp)
	cmpq	$0, -48(%rbp)
	je	.L437
	movq	PyExc_StopIteration(%rip), %rax
	cmpq	%rax, -48(%rbp)
	sete	%al
	movzbl	%al, %eax
	testq	%rax, %rax
	jne	.L391
	movq	PyExc_StopIteration(%rip), %rdx
	movq	-48(%rbp), %rax
	movq	%rdx, %rsi
	movq	%rax, %rdi
	call	PyErr_GivenExceptionMatches
	testl	%eax, %eax
	setne	%al
	movzbl	%al, %eax
	testq	%rax, %rax
	je	.L392
.L391:
	call	PyErr_Clear
	nop
	jmp	.L386
.L392:
	movq	__pyx_f(%rip), %rax
	movq	%rax, -80(%rbp)
	movl	$63, -84(%rbp)
	movl	$2461, -68(%rbp)
	jmp	.L355
.L389:
	movq	-208(%rbp), %rax
	movq	%rax, -40(%rbp)
	movq	-160(%rbp), %rax
	movq	%rax, -208(%rbp)
	cmpq	$0, -40(%rbp)
	je	.L393
	movq	-40(%rbp), %rax
	movq	(%rax), %rax
	leaq	-1(%rax), %rdx
	movq	-40(%rbp), %rax
	movq	%rdx, (%rax)
	movq	-40(%rbp), %rax
	movq	(%rax), %rax
	testq	%rax, %rax
	jne	.L393
	movq	-40(%rbp), %rax
	movq	8(%rax), %rax
	movq	48(%rax), %rdx
	movq	-40(%rbp), %rax
	movq	%rax, %rdi
	call	*%rdx
.L393:
	movq	$0, -160(%rbp)
	movq	__pyx_n_s_Fraction(%rip), %rax
	movq	%rax, %rdi
	call	__Pyx_GetModuleGlobalName
	movq	%rax, -136(%rbp)
	cmpq	$0, -136(%rbp)
	sete	%al
	movzbl	%al, %eax
	testq	%rax, %rax
	je	.L394
	movq	__pyx_f(%rip), %rax
	movq	%rax, -80(%rbp)
	movl	$64, -84(%rbp)
	movl	$2477, -68(%rbp)
	jmp	.L355
.L394:
	movq	$0, -128(%rbp)
	movq	$0, -120(%rbp)
	movq	-136(%rbp), %rax
	movq	8(%rax), %rax
	cmpq	$PyMethod_Type, %rax
	sete	%al
	movzbl	%al, %eax
	testq	%rax, %rax
	je	.L395
	movq	-136(%rbp), %rax
	movq	24(%rax), %rax
	movq	%rax, -128(%rbp)
	cmpq	$0, -128(%rbp)
	setne	%al
	movzbl	%al, %eax
	testq	%rax, %rax
	je	.L395
	movq	-136(%rbp), %rax
	movq	16(%rax), %rax
	movq	%rax, -32(%rbp)
	movq	-128(%rbp), %rax
	movq	(%rax), %rax
	leaq	1(%rax), %rdx
	movq	-128(%rbp), %rax
	movq	%rdx, (%rax)
	movq	-32(%rbp), %rax
	movq	(%rax), %rax
	leaq	1(%rax), %rdx
	movq	-32(%rbp), %rax
	movq	%rdx, (%rax)
	movq	-136(%rbp), %rax
	movq	%rax, -24(%rbp)
	movq	-32(%rbp), %rax
	movq	%rax, -136(%rbp)
	movq	-24(%rbp), %rax
	movq	(%rax), %rax
	leaq	-1(%rax), %rdx
	movq	-24(%rbp), %rax
	movq	%rdx, (%rax)
	movq	-24(%rbp), %rax
	movq	(%rax), %rax
	testq	%rax, %rax
	jne	.L396
	movq	-24(%rbp), %rax
	movq	8(%rax), %rax
	movq	48(%rax), %rdx
	movq	-24(%rbp), %rax
	movq	%rax, %rdi
	call	*%rdx
.L396:
	movq	$1, -120(%rbp)
.L395:
	movq	-120(%rbp), %rax
	addq	$2, %rax
	movq	%rax, %rdi
	call	PyTuple_New
	movq	%rax, -112(%rbp)
	cmpq	$0, -112(%rbp)
	sete	%al
	movzbl	%al, %eax
	testq	%rax, %rax
	je	.L397
	movq	__pyx_f(%rip), %rax
	movq	%rax, -80(%rbp)
	movl	$64, -84(%rbp)
	movl	$2491, -68(%rbp)
	jmp	.L355
.L397:
	cmpq	$0, -128(%rbp)
	je	.L398
	movq	-112(%rbp), %rax
	movq	-128(%rbp), %rdx
	movq	%rdx, 24(%rax)
	movq	$0, -128(%rbp)
.L398:
	movq	-216(%rbp), %rax
	movq	(%rax), %rax
	leaq	1(%rax), %rdx
	movq	-216(%rbp), %rax
	movq	%rdx, (%rax)
	movq	-112(%rbp), %rax
	movq	-120(%rbp), %rdx
	leaq	2(%rdx), %rcx
	movq	-216(%rbp), %rdx
	movq	%rdx, 8(%rax,%rcx,8)
	movq	-208(%rbp), %rax
	movq	(%rax), %rax
	leaq	1(%rax), %rdx
	movq	-208(%rbp), %rax
	movq	%rdx, (%rax)
	movq	-112(%rbp), %rax
	movq	-120(%rbp), %rdx
	addq	$1, %rdx
	leaq	2(%rdx), %rcx
	movq	-208(%rbp), %rdx
	movq	%rdx, 8(%rax,%rcx,8)
	movq	-112(%rbp), %rcx
	movq	-136(%rbp), %rax
	movl	$0, %edx
	movq	%rcx, %rsi
	movq	%rax, %rdi
	call	__Pyx_PyObject_Call
	movq	%rax, -160(%rbp)
	cmpq	$0, -160(%rbp)
	sete	%al
	movzbl	%al, %eax
	testq	%rax, %rax
	je	.L399
	movq	__pyx_f(%rip), %rax
	movq	%rax, -80(%rbp)
	movl	$64, -84(%rbp)
	movl	$2502, -68(%rbp)
	jmp	.L355
.L399:
	movq	-112(%rbp), %rax
	movq	(%rax), %rax
	leaq	-1(%rax), %rdx
	movq	-112(%rbp), %rax
	movq	%rdx, (%rax)
	movq	-112(%rbp), %rax
	movq	(%rax), %rax
	testq	%rax, %rax
	jne	.L400
	movq	-112(%rbp), %rax
	movq	8(%rax), %rax
	movq	48(%rax), %rdx
	movq	-112(%rbp), %rax
	movq	%rax, %rdi
	call	*%rdx
.L400:
	movq	$0, -112(%rbp)
	movq	-136(%rbp), %rax
	movq	(%rax), %rax
	leaq	-1(%rax), %rdx
	movq	-136(%rbp), %rax
	movq	%rdx, (%rax)
	movq	-136(%rbp), %rax
	movq	(%rax), %rax
	testq	%rax, %rax
	jne	.L401
	movq	-136(%rbp), %rax
	movq	8(%rax), %rax
	movq	48(%rax), %rdx
	movq	-136(%rbp), %rax
	movq	%rax, %rdi
	call	*%rdx
.L401:
	movq	$0, -136(%rbp)
	movq	-160(%rbp), %rdx
	movq	-224(%rbp), %rax
	movq	%rdx, %rsi
	movq	%rax, %rdi
	call	__Pyx_PyList_Append
	movl	%eax, -100(%rbp)
	cmpl	$-1, -100(%rbp)
	sete	%al
	movzbl	%al, %eax
	testq	%rax, %rax
	je	.L402
	movq	__pyx_f(%rip), %rax
	movq	%rax, -80(%rbp)
	movl	$64, -84(%rbp)
	movl	$2506, -68(%rbp)
	jmp	.L355
.L402:
	movq	-160(%rbp), %rax
	movq	(%rax), %rax
	leaq	-1(%rax), %rdx
	movq	-160(%rbp), %rax
	movq	%rdx, (%rax)
	movq	-160(%rbp), %rax
	movq	(%rax), %rax
	testq	%rax, %rax
	jne	.L403
	movq	-160(%rbp), %rax
	movq	8(%rax), %rax
	movq	48(%rax), %rdx
	movq	-160(%rbp), %rax
	movq	%rax, %rdi
	call	*%rdx
.L403:
	movq	$0, -160(%rbp)
	movq	__pyx_n_s_Fraction(%rip), %rax
	movq	%rax, %rdi
	call	__Pyx_GetModuleGlobalName
	movq	%rax, -136(%rbp)
	cmpq	$0, -136(%rbp)
	sete	%al
	movzbl	%al, %eax
	testq	%rax, %rax
	je	.L404
	movq	__pyx_f(%rip), %rax
	movq	%rax, -80(%rbp)
	movl	$65, -84(%rbp)
	movl	$2516, -68(%rbp)
	jmp	.L355
.L404:
	movq	-216(%rbp), %rax
	movq	%rax, %rdi
	call	PyNumber_Negative
	movq	%rax, -112(%rbp)
	cmpq	$0, -112(%rbp)
	sete	%al
	movzbl	%al, %eax
	testq	%rax, %rax
	je	.L405
	movq	__pyx_f(%rip), %rax
	movq	%rax, -80(%rbp)
	movl	$65, -84(%rbp)
	movl	$2518, -68(%rbp)
	jmp	.L355
.L405:
	movq	$0, -128(%rbp)
	movq	$0, -120(%rbp)
	movq	-136(%rbp), %rax
	movq	8(%rax), %rax
	cmpq	$PyMethod_Type, %rax
	sete	%al
	movzbl	%al, %eax
	testq	%rax, %rax
	je	.L406
	movq	-136(%rbp), %rax
	movq	24(%rax), %rax
	movq	%rax, -128(%rbp)
	cmpq	$0, -128(%rbp)
	setne	%al
	movzbl	%al, %eax
	testq	%rax, %rax
	je	.L406
	movq	-136(%rbp), %rax
	movq	16(%rax), %rax
	movq	%rax, -16(%rbp)
	movq	-128(%rbp), %rax
	movq	(%rax), %rax
	leaq	1(%rax), %rdx
	movq	-128(%rbp), %rax
	movq	%rdx, (%rax)
	movq	-16(%rbp), %rax
	movq	(%rax), %rax
	leaq	1(%rax), %rdx
	movq	-16(%rbp), %rax
	movq	%rdx, (%rax)
	movq	-136(%rbp), %rax
	movq	%rax, -8(%rbp)
	movq	-16(%rbp), %rax
	movq	%rax, -136(%rbp)
	movq	-8(%rbp), %rax
	movq	(%rax), %rax
	leaq	-1(%rax), %rdx
	movq	-8(%rbp), %rax
	movq	%rdx, (%rax)
	movq	-8(%rbp), %rax
	movq	(%rax), %rax
	testq	%rax, %rax
	jne	.L407
	movq	-8(%rbp), %rax
	movq	8(%rax), %rax
	movq	48(%rax), %rdx
	movq	-8(%rbp), %rax
	movq	%rax, %rdi
	call	*%rdx
.L407:
	movq	$1, -120(%rbp)
.L406:
	movq	-120(%rbp), %rax
	addq	$2, %rax
	movq	%rax, %rdi
	call	PyTuple_New
	movq	%rax, -96(%rbp)
	cmpq	$0, -96(%rbp)
	sete	%al
	movzbl	%al, %eax
	testq	%rax, %rax
	je	.L408
	movq	__pyx_f(%rip), %rax
	movq	%rax, -80(%rbp)
	movl	$65, -84(%rbp)
	movl	$2532, -68(%rbp)
	jmp	.L355
.L408:
	cmpq	$0, -128(%rbp)
	je	.L409
	movq	-96(%rbp), %rax
	movq	-128(%rbp), %rdx
	movq	%rdx, 24(%rax)
	movq	$0, -128(%rbp)
.L409:
	movq	-96(%rbp), %rax
	movq	-120(%rbp), %rdx
	leaq	2(%rdx), %rcx
	movq	-112(%rbp), %rdx
	movq	%rdx, 8(%rax,%rcx,8)
	movq	-208(%rbp), %rax
	movq	(%rax), %rax
	leaq	1(%rax), %rdx
	movq	-208(%rbp), %rax
	movq	%rdx, (%rax)
	movq	-96(%rbp), %rax
	movq	-120(%rbp), %rdx
	addq	$1, %rdx
	leaq	2(%rdx), %rcx
	movq	-208(%rbp), %rdx
	movq	%rdx, 8(%rax,%rcx,8)
	movq	$0, -112(%rbp)
	movq	-96(%rbp), %rcx
	movq	-136(%rbp), %rax
	movl	$0, %edx
	movq	%rcx, %rsi
	movq	%rax, %rdi
	call	__Pyx_PyObject_Call
	movq	%rax, -160(%rbp)
	cmpq	$0, -160(%rbp)
	sete	%al
	movzbl	%al, %eax
	testq	%rax, %rax
	je	.L410
	movq	__pyx_f(%rip), %rax
	movq	%rax, -80(%rbp)
	movl	$65, -84(%rbp)
	movl	$2543, -68(%rbp)
	jmp	.L355
.L410:
	movq	-96(%rbp), %rax
	movq	(%rax), %rax
	leaq	-1(%rax), %rdx
	movq	-96(%rbp), %rax
	movq	%rdx, (%rax)
	movq	-96(%rbp), %rax
	movq	(%rax), %rax
	testq	%rax, %rax
	jne	.L411
	movq	-96(%rbp), %rax
	movq	8(%rax), %rax
	movq	48(%rax), %rdx
	movq	-96(%rbp), %rax
	movq	%rax, %rdi
	call	*%rdx
.L411:
	movq	$0, -96(%rbp)
	movq	-136(%rbp), %rax
	movq	(%rax), %rax
	leaq	-1(%rax), %rdx
	movq	-136(%rbp), %rax
	movq	%rdx, (%rax)
	movq	-136(%rbp), %rax
	movq	(%rax), %rax
	testq	%rax, %rax
	jne	.L412
	movq	-136(%rbp), %rax
	movq	8(%rax), %rax
	movq	48(%rax), %rdx
	movq	-136(%rbp), %rax
	movq	%rax, %rdi
	call	*%rdx
.L412:
	movq	$0, -136(%rbp)
	movq	-160(%rbp), %rdx
	movq	-224(%rbp), %rax
	movq	%rdx, %rsi
	movq	%rax, %rdi
	call	__Pyx_PyList_Append
	movl	%eax, -100(%rbp)
	cmpl	$-1, -100(%rbp)
	sete	%al
	movzbl	%al, %eax
	testq	%rax, %rax
	je	.L413
	movq	__pyx_f(%rip), %rax
	movq	%rax, -80(%rbp)
	movl	$65, -84(%rbp)
	movl	$2547, -68(%rbp)
	jmp	.L355
.L413:
	movq	-160(%rbp), %rax
	movq	(%rax), %rax
	leaq	-1(%rax), %rdx
	movq	-160(%rbp), %rax
	movq	%rdx, (%rax)
	movq	-160(%rbp), %rax
	movq	(%rax), %rax
	testq	%rax, %rax
	jne	.L414
	movq	-160(%rbp), %rax
	movq	8(%rax), %rax
	movq	48(%rax), %rdx
	movq	-160(%rbp), %rax
	movq	%rax, %rdi
	call	*%rdx
.L414:
	movq	$0, -160(%rbp)
	jmp	.L415
.L435:
	nop
	jmp	.L386
.L436:
	nop
	jmp	.L386
.L437:
	nop
.L386:
	movq	-184(%rbp), %rax
	movq	(%rax), %rax
	leaq	-1(%rax), %rdx
	movq	-184(%rbp), %rax
	movq	%rdx, (%rax)
	movq	-184(%rbp), %rax
	movq	(%rax), %rax
	testq	%rax, %rax
	jne	.L416
	movq	-184(%rbp), %rax
	movq	8(%rax), %rax
	movq	48(%rax), %rdx
	movq	-184(%rbp), %rax
	movq	%rax, %rdi
	call	*%rdx
.L416:
	movq	$0, -184(%rbp)
	jmp	.L417
.L432:
	nop
	jmp	.L367
.L433:
	nop
	jmp	.L367
.L434:
	nop
.L367:
	movq	-192(%rbp), %rax
	movq	(%rax), %rax
	leaq	-1(%rax), %rdx
	movq	-192(%rbp), %rax
	movq	%rdx, (%rax)
	movq	-192(%rbp), %rax
	movq	(%rax), %rax
	testq	%rax, %rax
	jne	.L418
	movq	-192(%rbp), %rax
	movq	8(%rax), %rax
	movq	48(%rax), %rdx
	movq	-192(%rbp), %rax
	movq	%rax, %rdi
	call	*%rdx
.L418:
	movq	$0, -192(%rbp)
	cmpq	$0, -200(%rbp)
	je	.L419
	movq	-200(%rbp), %rax
	movq	(%rax), %rax
	leaq	-1(%rax), %rdx
	movq	-200(%rbp), %rax
	movq	%rdx, (%rax)
	movq	-200(%rbp), %rax
	movq	(%rax), %rax
	testq	%rax, %rax
	jne	.L419
	movq	-200(%rbp), %rax
	movq	8(%rax), %rax
	movq	48(%rax), %rdx
	movq	-200(%rbp), %rax
	movq	%rax, %rdi
	call	*%rdx
.L419:
	movq	-224(%rbp), %rax
	movq	(%rax), %rax
	leaq	1(%rax), %rdx
	movq	-224(%rbp), %rax
	movq	%rdx, (%rax)
	movq	-224(%rbp), %rax
	movq	%rax, -200(%rbp)
	jmp	.L420
.L355:
	cmpq	$0, -192(%rbp)
	je	.L421
	movq	-192(%rbp), %rax
	movq	(%rax), %rax
	leaq	-1(%rax), %rdx
	movq	-192(%rbp), %rax
	movq	%rdx, (%rax)
	movq	-192(%rbp), %rax
	movq	(%rax), %rax
	testq	%rax, %rax
	jne	.L421
	movq	-192(%rbp), %rax
	movq	8(%rax), %rax
	movq	48(%rax), %rdx
	movq	-192(%rbp), %rax
	movq	%rax, %rdi
	call	*%rdx
.L421:
	cmpq	$0, -184(%rbp)
	je	.L422
	movq	-184(%rbp), %rax
	movq	(%rax), %rax
	leaq	-1(%rax), %rdx
	movq	-184(%rbp), %rax
	movq	%rdx, (%rax)
	movq	-184(%rbp), %rax
	movq	(%rax), %rax
	testq	%rax, %rax
	jne	.L422
	movq	-184(%rbp), %rax
	movq	8(%rax), %rax
	movq	48(%rax), %rdx
	movq	-184(%rbp), %rax
	movq	%rax, %rdi
	call	*%rdx
.L422:
	cmpq	$0, -160(%rbp)
	je	.L423
	movq	-160(%rbp), %rax
	movq	(%rax), %rax
	leaq	-1(%rax), %rdx
	movq	-160(%rbp), %rax
	movq	%rdx, (%rax)
	movq	-160(%rbp), %rax
	movq	(%rax), %rax
	testq	%rax, %rax
	jne	.L423
	movq	-160(%rbp), %rax
	movq	8(%rax), %rax
	movq	48(%rax), %rdx
	movq	-160(%rbp), %rax
	movq	%rax, %rdi
	call	*%rdx
.L423:
	cmpq	$0, -136(%rbp)
	je	.L424
	movq	-136(%rbp), %rax
	movq	(%rax), %rax
	leaq	-1(%rax), %rdx
	movq	-136(%rbp), %rax
	movq	%rdx, (%rax)
	movq	-136(%rbp), %rax
	movq	(%rax), %rax
	testq	%rax, %rax
	jne	.L424
	movq	-136(%rbp), %rax
	movq	8(%rax), %rax
	movq	48(%rax), %rdx
	movq	-136(%rbp), %rax
	movq	%rax, %rdi
	call	*%rdx
.L424:
	cmpq	$0, -128(%rbp)
	je	.L425
	movq	-128(%rbp), %rax
	movq	(%rax), %rax
	leaq	-1(%rax), %rdx
	movq	-128(%rbp), %rax
	movq	%rdx, (%rax)
	movq	-128(%rbp), %rax
	movq	(%rax), %rax
	testq	%rax, %rax
	jne	.L425
	movq	-128(%rbp), %rax
	movq	8(%rax), %rax
	movq	48(%rax), %rdx
	movq	-128(%rbp), %rax
	movq	%rax, %rdi
	call	*%rdx
.L425:
	cmpq	$0, -112(%rbp)
	je	.L426
	movq	-112(%rbp), %rax
	movq	(%rax), %rax
	leaq	-1(%rax), %rdx
	movq	-112(%rbp), %rax
	movq	%rdx, (%rax)
	movq	-112(%rbp), %rax
	movq	(%rax), %rax
	testq	%rax, %rax
	jne	.L426
	movq	-112(%rbp), %rax
	movq	8(%rax), %rax
	movq	48(%rax), %rdx
	movq	-112(%rbp), %rax
	movq	%rax, %rdi
	call	*%rdx
.L426:
	cmpq	$0, -96(%rbp)
	je	.L427
	movq	-96(%rbp), %rax
	movq	(%rax), %rax
	leaq	-1(%rax), %rdx
	movq	-96(%rbp), %rax
	movq	%rdx, (%rax)
	movq	-96(%rbp), %rax
	movq	(%rax), %rax
	testq	%rax, %rax
	jne	.L427
	movq	-96(%rbp), %rax
	movq	8(%rax), %rax
	movq	48(%rax), %rdx
	movq	-96(%rbp), %rax
	movq	%rax, %rdi
	call	*%rdx
.L427:
	movq	-80(%rbp), %rcx
	movl	-84(%rbp), %edx
	movl	-68(%rbp), %eax
	movl	%eax, %esi
	movl	$.LC19, %edi
	call	__Pyx_AddTraceback
	movq	$0, -200(%rbp)
.L420:
	cmpq	$0, -224(%rbp)
	je	.L428
	movq	-224(%rbp), %rax
	movq	(%rax), %rax
	leaq	-1(%rax), %rdx
	movq	-224(%rbp), %rax
	movq	%rdx, (%rax)
	movq	-224(%rbp), %rax
	movq	(%rax), %rax
	testq	%rax, %rax
	jne	.L428
	movq	-224(%rbp), %rax
	movq	8(%rax), %rax
	movq	48(%rax), %rdx
	movq	-224(%rbp), %rax
	movq	%rax, %rdi
	call	*%rdx
.L428:
	cmpq	$0, -216(%rbp)
	je	.L429
	movq	-216(%rbp), %rax
	movq	(%rax), %rax
	leaq	-1(%rax), %rdx
	movq	-216(%rbp), %rax
	movq	%rdx, (%rax)
	movq	-216(%rbp), %rax
	movq	(%rax), %rax
	testq	%rax, %rax
	jne	.L429
	movq	-216(%rbp), %rax
	movq	8(%rax), %rax
	movq	48(%rax), %rdx
	movq	-216(%rbp), %rax
	movq	%rax, %rdi
	call	*%rdx
.L429:
	cmpq	$0, -208(%rbp)
	je	.L430
	movq	-208(%rbp), %rax
	movq	(%rax), %rax
	leaq	-1(%rax), %rdx
	movq	-208(%rbp), %rax
	movq	%rdx, (%rax)
	movq	-208(%rbp), %rax
	movq	(%rax), %rax
	testq	%rax, %rax
	jne	.L430
	movq	-208(%rbp), %rax
	movq	8(%rax), %rax
	movq	48(%rax), %rdx
	movq	-208(%rbp), %rax
	movq	%rax, %rdi
	call	*%rdx
.L430:
	movq	-200(%rbp), %rax
	leave
	.cfi_def_cfa 7, 8
	ret
	.cfi_endproc
.LFE20:
	.size	__pyx_pf_8friedman_4generateAllFractions, .-__pyx_pf_8friedman_4generateAllFractions
	.section	.rodata
.LC20:
	.string	"hasAnEdge"
	.data
	.align 32
	.type	__pyx_mdef_8friedman_7hasAnEdge, @object
	.size	__pyx_mdef_8friedman_7hasAnEdge, 32
__pyx_mdef_8friedman_7hasAnEdge:
	.quad	.LC20
	.quad	__pyx_pw_8friedman_7hasAnEdge
	.long	3
	.zero	4
	.quad	0
	.section	.rodata
.LC21:
	.string	"friedman.hasAnEdge"
	.text
	.type	__pyx_pw_8friedman_7hasAnEdge, @function
__pyx_pw_8friedman_7hasAnEdge:
.LFB21:
	.cfi_startproc
	pushq	%rbp
	.cfi_def_cfa_offset 16
	.cfi_offset 6, -16
	movq	%rsp, %rbp
	.cfi_def_cfa_register 6
	pushq	%rbx
	subq	$136, %rsp
	movq	%rdi, -120(%rbp)
	movq	%rsi, -128(%rbp)
	movq	%rdx, -136(%rbp)
	movq	$0, -88(%rbp)
	movq	$0, -80(%rbp)
	movq	$0, -72(%rbp)
	movl	$0, -60(%rbp)
	movq	$0, -56(%rbp)
	movl	$0, -44(%rbp)
	movq	$0, -40(%rbp)
	movq	$0, -112(%rbp)
	movq	$0, -104(%rbp)
	movq	$0, -96(%rbp)
	cmpq	$0, -136(%rbp)
	setne	%al
	movzbl	%al, %eax
	testq	%rax, %rax
	je	.L439
	.cfi_offset 3, -24
	movq	-128(%rbp), %rax
	movq	16(%rax), %rax
	movq	%rax, -24(%rbp)
	movq	-24(%rbp), %rax
	cmpq	$1, %rax
	je	.L442
	cmpq	$1, %rax
	jg	.L445
	testq	%rax, %rax
	je	.L461
	jmp	.L447
.L445:
	cmpq	$2, %rax
	je	.L443
	cmpq	$3, %rax
	jne	.L462
.L444:
	movq	-128(%rbp), %rax
	movq	40(%rax), %rax
	movq	%rax, -96(%rbp)
.L443:
	movq	-128(%rbp), %rax
	movq	32(%rax), %rax
	movq	%rax, -104(%rbp)
.L442:
	movq	-128(%rbp), %rax
	movq	24(%rax), %rax
	movq	%rax, -112(%rbp)
	jmp	.L446
.L461:
	nop
.L446:
	movq	-136(%rbp), %rax
	movq	%rax, %rdi
	call	PyDict_Size
	movq	%rax, -32(%rbp)
	movq	-24(%rbp), %rax
	cmpq	$1, %rax
	je	.L450
	cmpq	$2, %rax
	je	.L451
	testq	%rax, %rax
	jne	.L448
.L449:
	movq	__pyx_n_s_kSet1(%rip), %rdx
	movq	-136(%rbp), %rax
	movq	%rdx, %rsi
	movq	%rax, %rdi
	call	PyDict_GetItem
	movq	%rax, -112(%rbp)
	movq	-112(%rbp), %rax
	testq	%rax, %rax
	setne	%al
	movzbl	%al, %eax
	testq	%rax, %rax
	je	.L463
	subq	$1, -32(%rbp)
.L450:
	movq	__pyx_n_s_kSet2(%rip), %rdx
	movq	-136(%rbp), %rax
	movq	%rdx, %rsi
	movq	%rax, %rdi
	call	PyDict_GetItem
	movq	%rax, -104(%rbp)
	movq	-104(%rbp), %rax
	testq	%rax, %rax
	setne	%al
	movzbl	%al, %eax
	testq	%rax, %rax
	je	.L453
	subq	$1, -32(%rbp)
	jmp	.L451
.L453:
	movl	$1, %r8d
	movl	$3, %ecx
	movl	$3, %edx
	movl	$1, %esi
	movl	$.LC20, %edi
	call	__Pyx_RaiseArgtupleInvalid
	movq	__pyx_f(%rip), %rax
	movq	%rax, -56(%rbp)
	movl	$73, -60(%rbp)
	movl	$2652, -44(%rbp)
	jmp	.L454
.L451:
	movq	__pyx_n_s_legalOrdering(%rip), %rdx
	movq	-136(%rbp), %rax
	movq	%rdx, %rsi
	movq	%rax, %rdi
	call	PyDict_GetItem
	movq	%rax, -96(%rbp)
	movq	-96(%rbp), %rax
	testq	%rax, %rax
	setne	%al
	movzbl	%al, %eax
	testq	%rax, %rax
	je	.L455
	subq	$1, -32(%rbp)
	jmp	.L448
.L455:
	movl	$2, %r8d
	movl	$3, %ecx
	movl	$3, %edx
	movl	$1, %esi
	movl	$.LC20, %edi
	call	__Pyx_RaiseArgtupleInvalid
	movq	__pyx_f(%rip), %rax
	movq	%rax, -56(%rbp)
	movl	$73, -60(%rbp)
	movl	$2657, -44(%rbp)
	jmp	.L454
.L448:
	cmpq	$0, -32(%rbp)
	setg	%al
	movzbl	%al, %eax
	testq	%rax, %rax
	je	.L456
	movq	-24(%rbp), %rcx
	leaq	-112(%rbp), %rdx
	movq	-136(%rbp), %rax
	movl	$.LC20, %r9d
	movq	%rcx, %r8
	movq	%rdx, %rcx
	movl	$0, %edx
	movl	$__pyx_pyargnames.11967, %esi
	movq	%rax, %rdi
	call	__Pyx_ParseOptionalKeywords
	cltq
	shrq	$63, %rax
	testq	%rax, %rax
	je	.L456
	movq	__pyx_f(%rip), %rax
	movq	%rax, -56(%rbp)
	movl	$73, -60(%rbp)
	movl	$2661, -44(%rbp)
	jmp	.L454
.L439:
	movq	-128(%rbp), %rax
	movq	16(%rax), %rax
	cmpq	$3, %rax
	jne	.L464
.L457:
	movq	-128(%rbp), %rax
	movq	24(%rax), %rax
	movq	%rax, -112(%rbp)
	movq	-128(%rbp), %rax
	movq	32(%rax), %rax
	movq	%rax, -104(%rbp)
	movq	-128(%rbp), %rax
	movq	40(%rax), %rax
	movq	%rax, -96(%rbp)
.L456:
	movq	-112(%rbp), %rax
	movq	%rax, -88(%rbp)
	movq	-104(%rbp), %rax
	movq	%rax, -80(%rbp)
	movq	-96(%rbp), %rax
	movq	%rax, -72(%rbp)
	nop
.L458:
	movq	-72(%rbp), %rcx
	movq	-80(%rbp), %rdx
	movq	-88(%rbp), %rbx
	movq	-120(%rbp), %rax
	movq	%rbx, %rsi
	movq	%rax, %rdi
	call	__pyx_pf_8friedman_6hasAnEdge
	movq	%rax, -40(%rbp)
	movq	-40(%rbp), %rax
	jmp	.L459
.L462:
	nop
	jmp	.L447
.L463:
	nop
	jmp	.L447
.L464:
	nop
.L447:
	movq	-128(%rbp), %rax
	movq	16(%rax), %rax
	movq	%rax, %r8
	movl	$3, %ecx
	movl	$3, %edx
	movl	$1, %esi
	movl	$.LC20, %edi
	call	__Pyx_RaiseArgtupleInvalid
	movq	__pyx_f(%rip), %rax
	movq	%rax, -56(%rbp)
	movl	$73, -60(%rbp)
	movl	$2676, -44(%rbp)
.L454:
	movq	-56(%rbp), %rcx
	movl	-60(%rbp), %edx
	movl	-44(%rbp), %eax
	movl	%eax, %esi
	movl	$.LC21, %edi
	call	__Pyx_AddTraceback
	movl	$0, %eax
.L459:
	addq	$136, %rsp
	popq	%rbx
	leave
	.cfi_def_cfa 7, 8
	ret
	.cfi_endproc
.LFE21:
	.size	__pyx_pw_8friedman_7hasAnEdge, .-__pyx_pw_8friedman_7hasAnEdge
	.type	__pyx_pf_8friedman_6hasAnEdge, @function
__pyx_pf_8friedman_6hasAnEdge:
.LFB22:
	.cfi_startproc
	pushq	%rbp
	.cfi_def_cfa_offset 16
	.cfi_offset 6, -16
	movq	%rsp, %rbp
	.cfi_def_cfa_register 6
	subq	$224, %rsp
	movq	%rdi, -168(%rbp)
	movq	%rsi, -176(%rbp)
	movq	%rdx, -184(%rbp)
	movq	%rcx, -192(%rbp)
	movq	$0, -160(%rbp)
	movq	$0, -128(%rbp)
	movq	$0, -120(%rbp)
	movq	$0, -112(%rbp)
	movq	$0, -104(%rbp)
	movq	$0, -96(%rbp)
	movq	$0, -88(%rbp)
	movq	$0, -80(%rbp)
	movl	$0, -68(%rbp)
	movq	$0, -64(%rbp)
	movl	$0, -52(%rbp)
	movq	-176(%rbp), %rax
	movq	%rax, %rdi
	call	PyObject_Size
	movq	%rax, -144(%rbp)
	cmpq	$-1, -144(%rbp)
	sete	%al
	movzbl	%al, %eax
	testq	%rax, %rax
	je	.L466
	movq	__pyx_f(%rip), %rax
	movq	%rax, -64(%rbp)
	movl	$75, -68(%rbp)
	movl	$2715, -52(%rbp)
	jmp	.L467
.L466:
	cmpq	$0, -144(%rbp)
	sete	%al
	movzbl	%al, %eax
	movl	%eax, -136(%rbp)
	cmpl	$0, -136(%rbp)
	jne	.L468
	movl	-136(%rbp), %eax
	movl	%eax, -148(%rbp)
	jmp	.L469
.L468:
	movq	-184(%rbp), %rax
	movq	%rax, %rdi
	call	PyObject_Size
	movq	%rax, -144(%rbp)
	cmpq	$-1, -144(%rbp)
	sete	%al
	movzbl	%al, %eax
	testq	%rax, %rax
	je	.L470
	movq	__pyx_f(%rip), %rax
	movq	%rax, -64(%rbp)
	movl	$75, -68(%rbp)
	movl	$2722, -52(%rbp)
	jmp	.L467
.L470:
	cmpq	$0, -144(%rbp)
	sete	%al
	movzbl	%al, %eax
	movl	%eax, -136(%rbp)
	movl	-136(%rbp), %eax
	movl	%eax, -148(%rbp)
.L469:
	cmpl	$0, -148(%rbp)
	je	.L471
	cmpq	$0, -160(%rbp)
	je	.L472
	movq	-160(%rbp), %rax
	movq	(%rax), %rax
	leaq	-1(%rax), %rdx
	movq	-160(%rbp), %rax
	movq	%rdx, (%rax)
	movq	-160(%rbp), %rax
	movq	(%rax), %rax
	testq	%rax, %rax
	jne	.L472
	movq	-160(%rbp), %rax
	movq	8(%rax), %rax
	movq	48(%rax), %rdx
	movq	-160(%rbp), %rax
	movq	%rax, %rdi
	call	*%rdx
.L472:
	movl	$_Py_TrueStruct, %eax
	movq	(%rax), %rdx
	addq	$1, %rdx
	movq	%rdx, (%rax)
	movq	$_Py_TrueStruct, -160(%rbp)
	jmp	.L473
.L471:
	movq	-176(%rbp), %rax
	movq	%rax, %rdi
	call	PyObject_Size
	movq	%rax, -144(%rbp)
	cmpq	$-1, -144(%rbp)
	sete	%al
	movzbl	%al, %eax
	testq	%rax, %rax
	je	.L474
	movq	__pyx_f(%rip), %rax
	movq	%rax, -64(%rbp)
	movl	$78, -68(%rbp)
	movl	$2748, -52(%rbp)
	jmp	.L467
.L474:
	cmpq	$0, -144(%rbp)
	setg	%al
	movzbl	%al, %eax
	movl	%eax, -136(%rbp)
	cmpl	$0, -136(%rbp)
	jne	.L475
	movl	-136(%rbp), %eax
	movl	%eax, -148(%rbp)
	jmp	.L476
.L475:
	movq	-184(%rbp), %rax
	movq	%rax, %rdi
	call	PyObject_Size
	movq	%rax, -144(%rbp)
	cmpq	$-1, -144(%rbp)
	sete	%al
	movzbl	%al, %eax
	testq	%rax, %rax
	je	.L477
	movq	__pyx_f(%rip), %rax
	movq	%rax, -64(%rbp)
	movl	$78, -68(%rbp)
	movl	$2755, -52(%rbp)
	jmp	.L467
.L477:
	cmpq	$0, -144(%rbp)
	sete	%al
	movzbl	%al, %eax
	movl	%eax, -136(%rbp)
	cmpl	$0, -136(%rbp)
	jne	.L478
	movl	-136(%rbp), %eax
	movl	%eax, -148(%rbp)
	jmp	.L476
.L478:
	movq	__pyx_int_1(%rip), %rax
	movq	-192(%rbp), %rcx
	movl	$3, %edx
	movq	%rcx, %rsi
	movq	%rax, %rdi
	call	__Pyx_PySequence_Contains
	movl	%eax, -136(%rbp)
	movl	-136(%rbp), %eax
	cltq
	shrq	$63, %rax
	testq	%rax, %rax
	je	.L479
	movq	__pyx_f(%rip), %rax
	movq	%rax, -64(%rbp)
	movl	$78, -68(%rbp)
	movl	$2762, -52(%rbp)
	jmp	.L467
.L479:
	cmpl	$0, -136(%rbp)
	setne	%al
	movzbl	%al, %eax
	movl	%eax, -132(%rbp)
	movl	-132(%rbp), %eax
	movl	%eax, -148(%rbp)
.L476:
	cmpl	$0, -148(%rbp)
	je	.L480
	cmpq	$0, -160(%rbp)
	je	.L481
	movq	-160(%rbp), %rax
	movq	(%rax), %rax
	leaq	-1(%rax), %rdx
	movq	-160(%rbp), %rax
	movq	%rdx, (%rax)
	movq	-160(%rbp), %rax
	movq	(%rax), %rax
	testq	%rax, %rax
	jne	.L481
	movq	-160(%rbp), %rax
	movq	8(%rax), %rax
	movq	48(%rax), %rdx
	movq	-160(%rbp), %rax
	movq	%rax, %rdi
	call	*%rdx
.L481:
	movl	$_Py_TrueStruct, %eax
	movq	(%rax), %rdx
	addq	$1, %rdx
	movq	%rdx, (%rax)
	movq	$_Py_TrueStruct, -160(%rbp)
	jmp	.L473
.L480:
	movq	-176(%rbp), %rax
	movq	%rax, %rdi
	call	PyObject_Size
	movq	%rax, -144(%rbp)
	cmpq	$-1, -144(%rbp)
	sete	%al
	movzbl	%al, %eax
	testq	%rax, %rax
	je	.L482
	movq	__pyx_f(%rip), %rax
	movq	%rax, -64(%rbp)
	movl	$81, -68(%rbp)
	movl	$2788, -52(%rbp)
	jmp	.L467
.L482:
	cmpq	$0, -144(%rbp)
	sete	%al
	movzbl	%al, %eax
	movl	%eax, -132(%rbp)
	cmpl	$0, -132(%rbp)
	jne	.L483
	movl	-132(%rbp), %eax
	movl	%eax, -148(%rbp)
	jmp	.L484
.L483:
	movq	-184(%rbp), %rax
	movq	%rax, %rdi
	call	PyObject_Size
	movq	%rax, -144(%rbp)
	cmpq	$-1, -144(%rbp)
	sete	%al
	movzbl	%al, %eax
	testq	%rax, %rax
	je	.L485
	movq	__pyx_f(%rip), %rax
	movq	%rax, -64(%rbp)
	movl	$81, -68(%rbp)
	movl	$2795, -52(%rbp)
	jmp	.L467
.L485:
	cmpq	$0, -144(%rbp)
	setg	%al
	movzbl	%al, %eax
	movl	%eax, -132(%rbp)
	cmpl	$0, -132(%rbp)
	jne	.L486
	movl	-132(%rbp), %eax
	movl	%eax, -148(%rbp)
	jmp	.L484
.L486:
	movq	__pyx_int_neg_1(%rip), %rax
	movq	-192(%rbp), %rcx
	movl	$3, %edx
	movq	%rcx, %rsi
	movq	%rax, %rdi
	call	__Pyx_PySequence_Contains
	movl	%eax, -132(%rbp)
	movl	-132(%rbp), %eax
	cltq
	shrq	$63, %rax
	testq	%rax, %rax
	je	.L487
	movq	__pyx_f(%rip), %rax
	movq	%rax, -64(%rbp)
	movl	$81, -68(%rbp)
	movl	$2802, -52(%rbp)
	jmp	.L467
.L487:
	cmpl	$0, -132(%rbp)
	setne	%al
	movzbl	%al, %eax
	movl	%eax, -136(%rbp)
	movl	-136(%rbp), %eax
	movl	%eax, -148(%rbp)
.L484:
	cmpl	$0, -148(%rbp)
	je	.L488
	cmpq	$0, -160(%rbp)
	je	.L489
	movq	-160(%rbp), %rax
	movq	(%rax), %rax
	leaq	-1(%rax), %rdx
	movq	-160(%rbp), %rax
	movq	%rdx, (%rax)
	movq	-160(%rbp), %rax
	movq	(%rax), %rax
	testq	%rax, %rax
	jne	.L489
	movq	-160(%rbp), %rax
	movq	8(%rax), %rax
	movq	48(%rax), %rdx
	movq	-160(%rbp), %rax
	movq	%rax, %rdi
	call	*%rdx
.L489:
	movl	$_Py_TrueStruct, %eax
	movq	(%rax), %rdx
	addq	$1, %rdx
	movq	%rdx, (%rax)
	movq	$_Py_TrueStruct, -160(%rbp)
	jmp	.L473
.L488:
	movq	-176(%rbp), %rax
	movl	$1, %r8d
	movl	$0, %ecx
	movl	$0, %edx
	movl	$0, %esi
	movq	%rax, %rdi
	call	__Pyx_GetItemInt_Fast
	movq	%rax, -128(%rbp)
	cmpq	$0, -128(%rbp)
	sete	%al
	movzbl	%al, %eax
	testq	%rax, %rax
	je	.L490
	movq	__pyx_f(%rip), %rax
	movq	%rax, -64(%rbp)
	movl	$84, -68(%rbp)
	movl	$2828, -52(%rbp)
	jmp	.L467
.L490:
	movq	-184(%rbp), %rax
	movl	$1, %r8d
	movl	$0, %ecx
	movl	$0, %edx
	movl	$0, %esi
	movq	%rax, %rdi
	call	__Pyx_GetItemInt_Fast
	movq	%rax, -120(%rbp)
	cmpq	$0, -120(%rbp)
	sete	%al
	movzbl	%al, %eax
	testq	%rax, %rax
	je	.L491
	movq	__pyx_f(%rip), %rax
	movq	%rax, -64(%rbp)
	movl	$84, -68(%rbp)
	movl	$2830, -52(%rbp)
	jmp	.L467
.L491:
	movq	-120(%rbp), %rcx
	movq	-128(%rbp), %rax
	movl	$0, %edx
	movq	%rcx, %rsi
	movq	%rax, %rdi
	call	PyObject_RichCompare
	movq	%rax, -112(%rbp)
	cmpq	$0, -112(%rbp)
	sete	%al
	movzbl	%al, %eax
	testq	%rax, %rax
	je	.L492
	movq	__pyx_f(%rip), %rax
	movq	%rax, -64(%rbp)
	movl	$84, -68(%rbp)
	movl	$2832, -52(%rbp)
	jmp	.L467
.L492:
	movq	-128(%rbp), %rax
	movq	(%rax), %rax
	leaq	-1(%rax), %rdx
	movq	-128(%rbp), %rax
	movq	%rdx, (%rax)
	movq	-128(%rbp), %rax
	movq	(%rax), %rax
	testq	%rax, %rax
	jne	.L493
	movq	-128(%rbp), %rax
	movq	8(%rax), %rax
	movq	48(%rax), %rdx
	movq	-128(%rbp), %rax
	movq	%rax, %rdi
	call	*%rdx
.L493:
	movq	$0, -128(%rbp)
	movq	-120(%rbp), %rax
	movq	(%rax), %rax
	leaq	-1(%rax), %rdx
	movq	-120(%rbp), %rax
	movq	%rdx, (%rax)
	movq	-120(%rbp), %rax
	movq	(%rax), %rax
	testq	%rax, %rax
	jne	.L494
	movq	-120(%rbp), %rax
	movq	8(%rax), %rax
	movq	48(%rax), %rdx
	movq	-120(%rbp), %rax
	movq	%rax, %rdi
	call	*%rdx
.L494:
	movq	$0, -120(%rbp)
	movq	-112(%rbp), %rax
	movq	%rax, %rdi
	call	__Pyx_PyObject_IsTrue
	movl	%eax, -136(%rbp)
	movl	-136(%rbp), %eax
	cltq
	shrq	$63, %rax
	testq	%rax, %rax
	je	.L495
	movq	__pyx_f(%rip), %rax
	movq	%rax, -64(%rbp)
	movl	$84, -68(%rbp)
	movl	$2835, -52(%rbp)
	jmp	.L467
.L495:
	movq	-112(%rbp), %rax
	movq	(%rax), %rax
	leaq	-1(%rax), %rdx
	movq	-112(%rbp), %rax
	movq	%rdx, (%rax)
	movq	-112(%rbp), %rax
	movq	(%rax), %rax
	testq	%rax, %rax
	jne	.L496
	movq	-112(%rbp), %rax
	movq	8(%rax), %rax
	movq	48(%rax), %rdx
	movq	-112(%rbp), %rax
	movq	%rax, %rdi
	call	*%rdx
.L496:
	movq	$0, -112(%rbp)
	cmpl	$0, -136(%rbp)
	jne	.L497
	movl	-136(%rbp), %eax
	movl	%eax, -148(%rbp)
	jmp	.L498
.L497:
	movq	-192(%rbp), %rax
	movl	$1, %r8d
	movl	$0, %ecx
	movl	$0, %edx
	movl	$0, %esi
	movq	%rax, %rdi
	call	__Pyx_GetItemInt_Fast
	movq	%rax, -112(%rbp)
	cmpq	$0, -112(%rbp)
	sete	%al
	movzbl	%al, %eax
	testq	%rax, %rax
	je	.L499
	movq	__pyx_f(%rip), %rax
	movq	%rax, -64(%rbp)
	movl	$84, -68(%rbp)
	movl	$2842, -52(%rbp)
	jmp	.L467
.L499:
	movq	__pyx_int_neg_1(%rip), %rcx
	movq	-112(%rbp), %rax
	movl	$2, %edx
	movq	%rcx, %rsi
	movq	%rax, %rdi
	call	PyObject_RichCompare
	movq	%rax, -120(%rbp)
	cmpq	$0, -120(%rbp)
	sete	%al
	movzbl	%al, %eax
	testq	%rax, %rax
	je	.L500
	movq	__pyx_f(%rip), %rax
	movq	%rax, -64(%rbp)
	movl	$84, -68(%rbp)
	movl	$2844, -52(%rbp)
	jmp	.L467
.L500:
	movq	-112(%rbp), %rax
	movq	(%rax), %rax
	leaq	-1(%rax), %rdx
	movq	-112(%rbp), %rax
	movq	%rdx, (%rax)
	movq	-112(%rbp), %rax
	movq	(%rax), %rax
	testq	%rax, %rax
	jne	.L501
	movq	-112(%rbp), %rax
	movq	8(%rax), %rax
	movq	48(%rax), %rdx
	movq	-112(%rbp), %rax
	movq	%rax, %rdi
	call	*%rdx
.L501:
	movq	$0, -112(%rbp)
	movq	-120(%rbp), %rax
	movq	%rax, %rdi
	call	__Pyx_PyObject_IsTrue
	movl	%eax, -136(%rbp)
	movl	-136(%rbp), %eax
	cltq
	shrq	$63, %rax
	testq	%rax, %rax
	je	.L502
	movq	__pyx_f(%rip), %rax
	movq	%rax, -64(%rbp)
	movl	$84, -68(%rbp)
	movl	$2846, -52(%rbp)
	jmp	.L467
.L502:
	movq	-120(%rbp), %rax
	movq	(%rax), %rax
	leaq	-1(%rax), %rdx
	movq	-120(%rbp), %rax
	movq	%rdx, (%rax)
	movq	-120(%rbp), %rax
	movq	(%rax), %rax
	testq	%rax, %rax
	jne	.L503
	movq	-120(%rbp), %rax
	movq	8(%rax), %rax
	movq	48(%rax), %rdx
	movq	-120(%rbp), %rax
	movq	%rax, %rdi
	call	*%rdx
.L503:
	movq	$0, -120(%rbp)
	movl	-136(%rbp), %eax
	movl	%eax, -148(%rbp)
.L498:
	cmpl	$0, -148(%rbp)
	je	.L504
	cmpq	$0, -160(%rbp)
	je	.L505
	movq	-160(%rbp), %rax
	movq	(%rax), %rax
	leaq	-1(%rax), %rdx
	movq	-160(%rbp), %rax
	movq	%rdx, (%rax)
	movq	-160(%rbp), %rax
	movq	(%rax), %rax
	testq	%rax, %rax
	jne	.L505
	movq	-160(%rbp), %rax
	movq	8(%rax), %rax
	movq	48(%rax), %rdx
	movq	-160(%rbp), %rax
	movq	%rax, %rdi
	call	*%rdx
.L505:
	movq	__pyx_n_s_hasAnEdge(%rip), %rax
	movq	%rax, %rdi
	call	__Pyx_GetModuleGlobalName
	movq	%rax, -112(%rbp)
	cmpq	$0, -112(%rbp)
	sete	%al
	movzbl	%al, %eax
	testq	%rax, %rax
	je	.L506
	movq	__pyx_f(%rip), %rax
	movq	%rax, -64(%rbp)
	movl	$85, -68(%rbp)
	movl	$2860, -52(%rbp)
	jmp	.L467
.L506:
	movq	-176(%rbp), %rax
	movl	$1, 16(%rsp)
	movl	$0, 8(%rsp)
	movl	$1, (%rsp)
	movl	$__pyx_slice__2, %r9d
	movl	$0, %r8d
	movl	$0, %ecx
	movl	$0, %edx
	movl	$1, %esi
	movq	%rax, %rdi
	call	__Pyx_PyObject_GetSlice
	movq	%rax, -128(%rbp)
	cmpq	$0, -128(%rbp)
	sete	%al
	movzbl	%al, %eax
	testq	%rax, %rax
	je	.L507
	movq	__pyx_f(%rip), %rax
	movq	%rax, -64(%rbp)
	movl	$85, -68(%rbp)
	movl	$2862, -52(%rbp)
	jmp	.L467
.L507:
	movq	-192(%rbp), %rax
	movl	$1, 16(%rsp)
	movl	$0, 8(%rsp)
	movl	$1, (%rsp)
	movl	$__pyx_slice__3, %r9d
	movl	$0, %r8d
	movl	$0, %ecx
	movl	$0, %edx
	movl	$1, %esi
	movq	%rax, %rdi
	call	__Pyx_PyObject_GetSlice
	movq	%rax, -104(%rbp)
	cmpq	$0, -104(%rbp)
	sete	%al
	movzbl	%al, %eax
	testq	%rax, %rax
	je	.L508
	movq	__pyx_f(%rip), %rax
	movq	%rax, -64(%rbp)
	movl	$85, -68(%rbp)
	movl	$2864, -52(%rbp)
	jmp	.L467
.L508:
	movq	$0, -96(%rbp)
	movq	$0, -144(%rbp)
	movq	-112(%rbp), %rax
	movq	8(%rax), %rax
	cmpq	$PyMethod_Type, %rax
	sete	%al
	movzbl	%al, %eax
	testq	%rax, %rax
	je	.L509
	movq	-112(%rbp), %rax
	movq	24(%rax), %rax
	movq	%rax, -96(%rbp)
	cmpq	$0, -96(%rbp)
	setne	%al
	movzbl	%al, %eax
	testq	%rax, %rax
	je	.L509
	movq	-112(%rbp), %rax
	movq	16(%rax), %rax
	movq	%rax, -48(%rbp)
	movq	-96(%rbp), %rax
	movq	(%rax), %rax
	leaq	1(%rax), %rdx
	movq	-96(%rbp), %rax
	movq	%rdx, (%rax)
	movq	-48(%rbp), %rax
	movq	(%rax), %rax
	leaq	1(%rax), %rdx
	movq	-48(%rbp), %rax
	movq	%rdx, (%rax)
	movq	-112(%rbp), %rax
	movq	%rax, -40(%rbp)
	movq	-48(%rbp), %rax
	movq	%rax, -112(%rbp)
	movq	-40(%rbp), %rax
	movq	(%rax), %rax
	leaq	-1(%rax), %rdx
	movq	-40(%rbp), %rax
	movq	%rdx, (%rax)
	movq	-40(%rbp), %rax
	movq	(%rax), %rax
	testq	%rax, %rax
	jne	.L510
	movq	-40(%rbp), %rax
	movq	8(%rax), %rax
	movq	48(%rax), %rdx
	movq	-40(%rbp), %rax
	movq	%rax, %rdi
	call	*%rdx
.L510:
	movq	$1, -144(%rbp)
.L509:
	movq	-144(%rbp), %rax
	addq	$3, %rax
	movq	%rax, %rdi
	call	PyTuple_New
	movq	%rax, -88(%rbp)
	cmpq	$0, -88(%rbp)
	sete	%al
	movzbl	%al, %eax
	testq	%rax, %rax
	je	.L511
	movq	__pyx_f(%rip), %rax
	movq	%rax, -64(%rbp)
	movl	$85, -68(%rbp)
	movl	$2878, -52(%rbp)
	jmp	.L467
.L511:
	cmpq	$0, -96(%rbp)
	je	.L512
	movq	-88(%rbp), %rax
	movq	-96(%rbp), %rdx
	movq	%rdx, 24(%rax)
	movq	$0, -96(%rbp)
.L512:
	movq	-88(%rbp), %rax
	movq	-144(%rbp), %rdx
	leaq	2(%rdx), %rcx
	movq	-128(%rbp), %rdx
	movq	%rdx, 8(%rax,%rcx,8)
	movq	-184(%rbp), %rax
	movq	(%rax), %rax
	leaq	1(%rax), %rdx
	movq	-184(%rbp), %rax
	movq	%rdx, (%rax)
	movq	-88(%rbp), %rax
	movq	-144(%rbp), %rdx
	addq	$1, %rdx
	leaq	2(%rdx), %rcx
	movq	-184(%rbp), %rdx
	movq	%rdx, 8(%rax,%rcx,8)
	movq	-88(%rbp), %rax
	movq	-144(%rbp), %rdx
	addq	$2, %rdx
	leaq	2(%rdx), %rcx
	movq	-104(%rbp), %rdx
	movq	%rdx, 8(%rax,%rcx,8)
	movq	$0, -128(%rbp)
	movq	$0, -104(%rbp)
	movq	-88(%rbp), %rcx
	movq	-112(%rbp), %rax
	movl	$0, %edx
	movq	%rcx, %rsi
	movq	%rax, %rdi
	call	__Pyx_PyObject_Call
	movq	%rax, -120(%rbp)
	cmpq	$0, -120(%rbp)
	sete	%al
	movzbl	%al, %eax
	testq	%rax, %rax
	je	.L513
	movq	__pyx_f(%rip), %rax
	movq	%rax, -64(%rbp)
	movl	$85, -68(%rbp)
	movl	$2892, -52(%rbp)
	jmp	.L467
.L513:
	movq	-88(%rbp), %rax
	movq	(%rax), %rax
	leaq	-1(%rax), %rdx
	movq	-88(%rbp), %rax
	movq	%rdx, (%rax)
	movq	-88(%rbp), %rax
	movq	(%rax), %rax
	testq	%rax, %rax
	jne	.L514
	movq	-88(%rbp), %rax
	movq	8(%rax), %rax
	movq	48(%rax), %rdx
	movq	-88(%rbp), %rax
	movq	%rax, %rdi
	call	*%rdx
.L514:
	movq	$0, -88(%rbp)
	movq	-112(%rbp), %rax
	movq	(%rax), %rax
	leaq	-1(%rax), %rdx
	movq	-112(%rbp), %rax
	movq	%rdx, (%rax)
	movq	-112(%rbp), %rax
	movq	(%rax), %rax
	testq	%rax, %rax
	jne	.L515
	movq	-112(%rbp), %rax
	movq	8(%rax), %rax
	movq	48(%rax), %rdx
	movq	-112(%rbp), %rax
	movq	%rax, %rdi
	call	*%rdx
.L515:
	movq	$0, -112(%rbp)
	movq	-120(%rbp), %rax
	movq	%rax, -160(%rbp)
	movq	$0, -120(%rbp)
	jmp	.L473
.L504:
	movq	-176(%rbp), %rax
	movl	$1, %r8d
	movl	$0, %ecx
	movl	$0, %edx
	movl	$0, %esi
	movq	%rax, %rdi
	call	__Pyx_GetItemInt_Fast
	movq	%rax, -120(%rbp)
	cmpq	$0, -120(%rbp)
	sete	%al
	movzbl	%al, %eax
	testq	%rax, %rax
	je	.L516
	movq	__pyx_f(%rip), %rax
	movq	%rax, -64(%rbp)
	movl	$87, -68(%rbp)
	movl	$2908, -52(%rbp)
	jmp	.L467
.L516:
	movq	-184(%rbp), %rax
	movl	$1, %r8d
	movl	$0, %ecx
	movl	$0, %edx
	movl	$0, %esi
	movq	%rax, %rdi
	call	__Pyx_GetItemInt_Fast
	movq	%rax, -112(%rbp)
	cmpq	$0, -112(%rbp)
	sete	%al
	movzbl	%al, %eax
	testq	%rax, %rax
	je	.L517
	movq	__pyx_f(%rip), %rax
	movq	%rax, -64(%rbp)
	movl	$87, -68(%rbp)
	movl	$2910, -52(%rbp)
	jmp	.L467
.L517:
	movq	-112(%rbp), %rcx
	movq	-120(%rbp), %rax
	movl	$4, %edx
	movq	%rcx, %rsi
	movq	%rax, %rdi
	call	PyObject_RichCompare
	movq	%rax, -88(%rbp)
	cmpq	$0, -88(%rbp)
	sete	%al
	movzbl	%al, %eax
	testq	%rax, %rax
	je	.L518
	movq	__pyx_f(%rip), %rax
	movq	%rax, -64(%rbp)
	movl	$87, -68(%rbp)
	movl	$2912, -52(%rbp)
	jmp	.L467
.L518:
	movq	-120(%rbp), %rax
	movq	(%rax), %rax
	leaq	-1(%rax), %rdx
	movq	-120(%rbp), %rax
	movq	%rdx, (%rax)
	movq	-120(%rbp), %rax
	movq	(%rax), %rax
	testq	%rax, %rax
	jne	.L519
	movq	-120(%rbp), %rax
	movq	8(%rax), %rax
	movq	48(%rax), %rdx
	movq	-120(%rbp), %rax
	movq	%rax, %rdi
	call	*%rdx
.L519:
	movq	$0, -120(%rbp)
	movq	-112(%rbp), %rax
	movq	(%rax), %rax
	leaq	-1(%rax), %rdx
	movq	-112(%rbp), %rax
	movq	%rdx, (%rax)
	movq	-112(%rbp), %rax
	movq	(%rax), %rax
	testq	%rax, %rax
	jne	.L520
	movq	-112(%rbp), %rax
	movq	8(%rax), %rax
	movq	48(%rax), %rdx
	movq	-112(%rbp), %rax
	movq	%rax, %rdi
	call	*%rdx
.L520:
	movq	$0, -112(%rbp)
	movq	-88(%rbp), %rax
	movq	%rax, %rdi
	call	__Pyx_PyObject_IsTrue
	movl	%eax, -136(%rbp)
	movl	-136(%rbp), %eax
	cltq
	shrq	$63, %rax
	testq	%rax, %rax
	je	.L521
	movq	__pyx_f(%rip), %rax
	movq	%rax, -64(%rbp)
	movl	$87, -68(%rbp)
	movl	$2915, -52(%rbp)
	jmp	.L467
.L521:
	movq	-88(%rbp), %rax
	movq	(%rax), %rax
	leaq	-1(%rax), %rdx
	movq	-88(%rbp), %rax
	movq	%rdx, (%rax)
	movq	-88(%rbp), %rax
	movq	(%rax), %rax
	testq	%rax, %rax
	jne	.L522
	movq	-88(%rbp), %rax
	movq	8(%rax), %rax
	movq	48(%rax), %rdx
	movq	-88(%rbp), %rax
	movq	%rax, %rdi
	call	*%rdx
.L522:
	movq	$0, -88(%rbp)
	cmpl	$0, -136(%rbp)
	jne	.L523
	movl	-136(%rbp), %eax
	movl	%eax, -148(%rbp)
	jmp	.L524
.L523:
	movq	-192(%rbp), %rax
	movl	$1, %r8d
	movl	$0, %ecx
	movl	$0, %edx
	movl	$0, %esi
	movq	%rax, %rdi
	call	__Pyx_GetItemInt_Fast
	movq	%rax, -88(%rbp)
	cmpq	$0, -88(%rbp)
	sete	%al
	movzbl	%al, %eax
	testq	%rax, %rax
	je	.L525
	movq	__pyx_f(%rip), %rax
	movq	%rax, -64(%rbp)
	movl	$87, -68(%rbp)
	movl	$2922, -52(%rbp)
	jmp	.L467
.L525:
	movq	__pyx_int_1(%rip), %rcx
	movq	-88(%rbp), %rax
	movl	$2, %edx
	movq	%rcx, %rsi
	movq	%rax, %rdi
	call	PyObject_RichCompare
	movq	%rax, -112(%rbp)
	cmpq	$0, -112(%rbp)
	sete	%al
	movzbl	%al, %eax
	testq	%rax, %rax
	je	.L526
	movq	__pyx_f(%rip), %rax
	movq	%rax, -64(%rbp)
	movl	$87, -68(%rbp)
	movl	$2924, -52(%rbp)
	jmp	.L467
.L526:
	movq	-88(%rbp), %rax
	movq	(%rax), %rax
	leaq	-1(%rax), %rdx
	movq	-88(%rbp), %rax
	movq	%rdx, (%rax)
	movq	-88(%rbp), %rax
	movq	(%rax), %rax
	testq	%rax, %rax
	jne	.L527
	movq	-88(%rbp), %rax
	movq	8(%rax), %rax
	movq	48(%rax), %rdx
	movq	-88(%rbp), %rax
	movq	%rax, %rdi
	call	*%rdx
.L527:
	movq	$0, -88(%rbp)
	movq	-112(%rbp), %rax
	movq	%rax, %rdi
	call	__Pyx_PyObject_IsTrue
	movl	%eax, -136(%rbp)
	movl	-136(%rbp), %eax
	cltq
	shrq	$63, %rax
	testq	%rax, %rax
	je	.L528
	movq	__pyx_f(%rip), %rax
	movq	%rax, -64(%rbp)
	movl	$87, -68(%rbp)
	movl	$2926, -52(%rbp)
	jmp	.L467
.L528:
	movq	-112(%rbp), %rax
	movq	(%rax), %rax
	leaq	-1(%rax), %rdx
	movq	-112(%rbp), %rax
	movq	%rdx, (%rax)
	movq	-112(%rbp), %rax
	movq	(%rax), %rax
	testq	%rax, %rax
	jne	.L529
	movq	-112(%rbp), %rax
	movq	8(%rax), %rax
	movq	48(%rax), %rdx
	movq	-112(%rbp), %rax
	movq	%rax, %rdi
	call	*%rdx
.L529:
	movq	$0, -112(%rbp)
	movl	-136(%rbp), %eax
	movl	%eax, -148(%rbp)
.L524:
	cmpl	$0, -148(%rbp)
	je	.L530
	cmpq	$0, -160(%rbp)
	je	.L531
	movq	-160(%rbp), %rax
	movq	(%rax), %rax
	leaq	-1(%rax), %rdx
	movq	-160(%rbp), %rax
	movq	%rdx, (%rax)
	movq	-160(%rbp), %rax
	movq	(%rax), %rax
	testq	%rax, %rax
	jne	.L531
	movq	-160(%rbp), %rax
	movq	8(%rax), %rax
	movq	48(%rax), %rdx
	movq	-160(%rbp), %rax
	movq	%rax, %rdi
	call	*%rdx
.L531:
	movq	__pyx_n_s_hasAnEdge(%rip), %rax
	movq	%rax, %rdi
	call	__Pyx_GetModuleGlobalName
	movq	%rax, -88(%rbp)
	cmpq	$0, -88(%rbp)
	sete	%al
	movzbl	%al, %eax
	testq	%rax, %rax
	je	.L532
	movq	__pyx_f(%rip), %rax
	movq	%rax, -64(%rbp)
	movl	$88, -68(%rbp)
	movl	$2940, -52(%rbp)
	jmp	.L467
.L532:
	movq	-184(%rbp), %rax
	movl	$1, 16(%rsp)
	movl	$0, 8(%rsp)
	movl	$1, (%rsp)
	movl	$__pyx_slice__4, %r9d
	movl	$0, %r8d
	movl	$0, %ecx
	movl	$0, %edx
	movl	$1, %esi
	movq	%rax, %rdi
	call	__Pyx_PyObject_GetSlice
	movq	%rax, -120(%rbp)
	cmpq	$0, -120(%rbp)
	sete	%al
	movzbl	%al, %eax
	testq	%rax, %rax
	je	.L533
	movq	__pyx_f(%rip), %rax
	movq	%rax, -64(%rbp)
	movl	$88, -68(%rbp)
	movl	$2942, -52(%rbp)
	jmp	.L467
.L533:
	movq	-192(%rbp), %rax
	movl	$1, 16(%rsp)
	movl	$0, 8(%rsp)
	movl	$1, (%rsp)
	movl	$__pyx_slice__5, %r9d
	movl	$0, %r8d
	movl	$0, %ecx
	movl	$0, %edx
	movl	$1, %esi
	movq	%rax, %rdi
	call	__Pyx_PyObject_GetSlice
	movq	%rax, -104(%rbp)
	cmpq	$0, -104(%rbp)
	sete	%al
	movzbl	%al, %eax
	testq	%rax, %rax
	je	.L534
	movq	__pyx_f(%rip), %rax
	movq	%rax, -64(%rbp)
	movl	$88, -68(%rbp)
	movl	$2944, -52(%rbp)
	jmp	.L467
.L534:
	movq	$0, -128(%rbp)
	movq	$0, -144(%rbp)
	movq	-88(%rbp), %rax
	movq	8(%rax), %rax
	cmpq	$PyMethod_Type, %rax
	sete	%al
	movzbl	%al, %eax
	testq	%rax, %rax
	je	.L535
	movq	-88(%rbp), %rax
	movq	24(%rax), %rax
	movq	%rax, -128(%rbp)
	cmpq	$0, -128(%rbp)
	setne	%al
	movzbl	%al, %eax
	testq	%rax, %rax
	je	.L535
	movq	-88(%rbp), %rax
	movq	16(%rax), %rax
	movq	%rax, -32(%rbp)
	movq	-128(%rbp), %rax
	movq	(%rax), %rax
	leaq	1(%rax), %rdx
	movq	-128(%rbp), %rax
	movq	%rdx, (%rax)
	movq	-32(%rbp), %rax
	movq	(%rax), %rax
	leaq	1(%rax), %rdx
	movq	-32(%rbp), %rax
	movq	%rdx, (%rax)
	movq	-88(%rbp), %rax
	movq	%rax, -24(%rbp)
	movq	-32(%rbp), %rax
	movq	%rax, -88(%rbp)
	movq	-24(%rbp), %rax
	movq	(%rax), %rax
	leaq	-1(%rax), %rdx
	movq	-24(%rbp), %rax
	movq	%rdx, (%rax)
	movq	-24(%rbp), %rax
	movq	(%rax), %rax
	testq	%rax, %rax
	jne	.L536
	movq	-24(%rbp), %rax
	movq	8(%rax), %rax
	movq	48(%rax), %rdx
	movq	-24(%rbp), %rax
	movq	%rax, %rdi
	call	*%rdx
.L536:
	movq	$1, -144(%rbp)
.L535:
	movq	-144(%rbp), %rax
	addq	$3, %rax
	movq	%rax, %rdi
	call	PyTuple_New
	movq	%rax, -96(%rbp)
	cmpq	$0, -96(%rbp)
	sete	%al
	movzbl	%al, %eax
	testq	%rax, %rax
	je	.L537
	movq	__pyx_f(%rip), %rax
	movq	%rax, -64(%rbp)
	movl	$88, -68(%rbp)
	movl	$2958, -52(%rbp)
	jmp	.L467
.L537:
	cmpq	$0, -128(%rbp)
	je	.L538
	movq	-96(%rbp), %rax
	movq	-128(%rbp), %rdx
	movq	%rdx, 24(%rax)
	movq	$0, -128(%rbp)
.L538:
	movq	-176(%rbp), %rax
	movq	(%rax), %rax
	leaq	1(%rax), %rdx
	movq	-176(%rbp), %rax
	movq	%rdx, (%rax)
	movq	-96(%rbp), %rax
	movq	-144(%rbp), %rdx
	leaq	2(%rdx), %rcx
	movq	-176(%rbp), %rdx
	movq	%rdx, 8(%rax,%rcx,8)
	movq	-96(%rbp), %rax
	movq	-144(%rbp), %rdx
	addq	$1, %rdx
	leaq	2(%rdx), %rcx
	movq	-120(%rbp), %rdx
	movq	%rdx, 8(%rax,%rcx,8)
	movq	-96(%rbp), %rax
	movq	-144(%rbp), %rdx
	addq	$2, %rdx
	leaq	2(%rdx), %rcx
	movq	-104(%rbp), %rdx
	movq	%rdx, 8(%rax,%rcx,8)
	movq	$0, -120(%rbp)
	movq	$0, -104(%rbp)
	movq	-96(%rbp), %rcx
	movq	-88(%rbp), %rax
	movl	$0, %edx
	movq	%rcx, %rsi
	movq	%rax, %rdi
	call	__Pyx_PyObject_Call
	movq	%rax, -112(%rbp)
	cmpq	$0, -112(%rbp)
	sete	%al
	movzbl	%al, %eax
	testq	%rax, %rax
	je	.L539
	movq	__pyx_f(%rip), %rax
	movq	%rax, -64(%rbp)
	movl	$88, -68(%rbp)
	movl	$2972, -52(%rbp)
	jmp	.L467
.L539:
	movq	-96(%rbp), %rax
	movq	(%rax), %rax
	leaq	-1(%rax), %rdx
	movq	-96(%rbp), %rax
	movq	%rdx, (%rax)
	movq	-96(%rbp), %rax
	movq	(%rax), %rax
	testq	%rax, %rax
	jne	.L540
	movq	-96(%rbp), %rax
	movq	8(%rax), %rax
	movq	48(%rax), %rdx
	movq	-96(%rbp), %rax
	movq	%rax, %rdi
	call	*%rdx
.L540:
	movq	$0, -96(%rbp)
	movq	-88(%rbp), %rax
	movq	(%rax), %rax
	leaq	-1(%rax), %rdx
	movq	-88(%rbp), %rax
	movq	%rdx, (%rax)
	movq	-88(%rbp), %rax
	movq	(%rax), %rax
	testq	%rax, %rax
	jne	.L541
	movq	-88(%rbp), %rax
	movq	8(%rax), %rax
	movq	48(%rax), %rdx
	movq	-88(%rbp), %rax
	movq	%rax, %rdi
	call	*%rdx
.L541:
	movq	$0, -88(%rbp)
	movq	-112(%rbp), %rax
	movq	%rax, -160(%rbp)
	movq	$0, -112(%rbp)
	jmp	.L473
.L530:
	movq	-176(%rbp), %rax
	movl	$1, %r8d
	movl	$0, %ecx
	movl	$0, %edx
	movl	$0, %esi
	movq	%rax, %rdi
	call	__Pyx_GetItemInt_Fast
	movq	%rax, -112(%rbp)
	cmpq	$0, -112(%rbp)
	sete	%al
	movzbl	%al, %eax
	testq	%rax, %rax
	je	.L542
	movq	__pyx_f(%rip), %rax
	movq	%rax, -64(%rbp)
	movl	$90, -68(%rbp)
	movl	$2988, -52(%rbp)
	jmp	.L467
.L542:
	movq	-184(%rbp), %rax
	movl	$1, %r8d
	movl	$0, %ecx
	movl	$0, %edx
	movl	$0, %esi
	movq	%rax, %rdi
	call	__Pyx_GetItemInt_Fast
	movq	%rax, -88(%rbp)
	cmpq	$0, -88(%rbp)
	sete	%al
	movzbl	%al, %eax
	testq	%rax, %rax
	je	.L543
	movq	__pyx_f(%rip), %rax
	movq	%rax, -64(%rbp)
	movl	$90, -68(%rbp)
	movl	$2990, -52(%rbp)
	jmp	.L467
.L543:
	movq	-88(%rbp), %rcx
	movq	-112(%rbp), %rax
	movl	$2, %edx
	movq	%rcx, %rsi
	movq	%rax, %rdi
	call	PyObject_RichCompare
	movq	%rax, -96(%rbp)
	cmpq	$0, -96(%rbp)
	sete	%al
	movzbl	%al, %eax
	testq	%rax, %rax
	je	.L544
	movq	__pyx_f(%rip), %rax
	movq	%rax, -64(%rbp)
	movl	$90, -68(%rbp)
	movl	$2992, -52(%rbp)
	jmp	.L467
.L544:
	movq	-112(%rbp), %rax
	movq	(%rax), %rax
	leaq	-1(%rax), %rdx
	movq	-112(%rbp), %rax
	movq	%rdx, (%rax)
	movq	-112(%rbp), %rax
	movq	(%rax), %rax
	testq	%rax, %rax
	jne	.L545
	movq	-112(%rbp), %rax
	movq	8(%rax), %rax
	movq	48(%rax), %rdx
	movq	-112(%rbp), %rax
	movq	%rax, %rdi
	call	*%rdx
.L545:
	movq	$0, -112(%rbp)
	movq	-88(%rbp), %rax
	movq	(%rax), %rax
	leaq	-1(%rax), %rdx
	movq	-88(%rbp), %rax
	movq	%rdx, (%rax)
	movq	-88(%rbp), %rax
	movq	(%rax), %rax
	testq	%rax, %rax
	jne	.L546
	movq	-88(%rbp), %rax
	movq	8(%rax), %rax
	movq	48(%rax), %rdx
	movq	-88(%rbp), %rax
	movq	%rax, %rdi
	call	*%rdx
.L546:
	movq	$0, -88(%rbp)
	movq	-96(%rbp), %rax
	movq	%rax, %rdi
	call	__Pyx_PyObject_IsTrue
	movl	%eax, -136(%rbp)
	movl	-136(%rbp), %eax
	cltq
	shrq	$63, %rax
	testq	%rax, %rax
	je	.L547
	movq	__pyx_f(%rip), %rax
	movq	%rax, -64(%rbp)
	movl	$90, -68(%rbp)
	movl	$2995, -52(%rbp)
	jmp	.L467
.L547:
	movq	-96(%rbp), %rax
	movq	(%rax), %rax
	leaq	-1(%rax), %rdx
	movq	-96(%rbp), %rax
	movq	%rdx, (%rax)
	movq	-96(%rbp), %rax
	movq	(%rax), %rax
	testq	%rax, %rax
	jne	.L548
	movq	-96(%rbp), %rax
	movq	8(%rax), %rax
	movq	48(%rax), %rdx
	movq	-96(%rbp), %rax
	movq	%rax, %rdi
	call	*%rdx
.L548:
	movq	$0, -96(%rbp)
	cmpl	$0, -136(%rbp)
	jne	.L549
	movl	-136(%rbp), %eax
	movl	%eax, -148(%rbp)
	jmp	.L550
.L549:
	movq	-192(%rbp), %rax
	movl	$1, %r8d
	movl	$0, %ecx
	movl	$0, %edx
	movl	$0, %esi
	movq	%rax, %rdi
	call	__Pyx_GetItemInt_Fast
	movq	%rax, -96(%rbp)
	cmpq	$0, -96(%rbp)
	sete	%al
	movzbl	%al, %eax
	testq	%rax, %rax
	je	.L551
	movq	__pyx_f(%rip), %rax
	movq	%rax, -64(%rbp)
	movl	$90, -68(%rbp)
	movl	$3002, -52(%rbp)
	jmp	.L467
.L551:
	movq	__pyx_int_0(%rip), %rcx
	movq	-96(%rbp), %rax
	movl	$2, %edx
	movq	%rcx, %rsi
	movq	%rax, %rdi
	call	PyObject_RichCompare
	movq	%rax, -88(%rbp)
	cmpq	$0, -88(%rbp)
	sete	%al
	movzbl	%al, %eax
	testq	%rax, %rax
	je	.L552
	movq	__pyx_f(%rip), %rax
	movq	%rax, -64(%rbp)
	movl	$90, -68(%rbp)
	movl	$3004, -52(%rbp)
	jmp	.L467
.L552:
	movq	-96(%rbp), %rax
	movq	(%rax), %rax
	leaq	-1(%rax), %rdx
	movq	-96(%rbp), %rax
	movq	%rdx, (%rax)
	movq	-96(%rbp), %rax
	movq	(%rax), %rax
	testq	%rax, %rax
	jne	.L553
	movq	-96(%rbp), %rax
	movq	8(%rax), %rax
	movq	48(%rax), %rdx
	movq	-96(%rbp), %rax
	movq	%rax, %rdi
	call	*%rdx
.L553:
	movq	$0, -96(%rbp)
	movq	-88(%rbp), %rax
	movq	%rax, %rdi
	call	__Pyx_PyObject_IsTrue
	movl	%eax, -136(%rbp)
	movl	-136(%rbp), %eax
	cltq
	shrq	$63, %rax
	testq	%rax, %rax
	je	.L554
	movq	__pyx_f(%rip), %rax
	movq	%rax, -64(%rbp)
	movl	$90, -68(%rbp)
	movl	$3006, -52(%rbp)
	jmp	.L467
.L554:
	movq	-88(%rbp), %rax
	movq	(%rax), %rax
	leaq	-1(%rax), %rdx
	movq	-88(%rbp), %rax
	movq	%rdx, (%rax)
	movq	-88(%rbp), %rax
	movq	(%rax), %rax
	testq	%rax, %rax
	jne	.L555
	movq	-88(%rbp), %rax
	movq	8(%rax), %rax
	movq	48(%rax), %rdx
	movq	-88(%rbp), %rax
	movq	%rax, %rdi
	call	*%rdx
.L555:
	movq	$0, -88(%rbp)
	movl	-136(%rbp), %eax
	movl	%eax, -148(%rbp)
.L550:
	cmpl	$0, -148(%rbp)
	je	.L556
	cmpq	$0, -160(%rbp)
	je	.L557
	movq	-160(%rbp), %rax
	movq	(%rax), %rax
	leaq	-1(%rax), %rdx
	movq	-160(%rbp), %rax
	movq	%rdx, (%rax)
	movq	-160(%rbp), %rax
	movq	(%rax), %rax
	testq	%rax, %rax
	jne	.L557
	movq	-160(%rbp), %rax
	movq	8(%rax), %rax
	movq	48(%rax), %rdx
	movq	-160(%rbp), %rax
	movq	%rax, %rdi
	call	*%rdx
.L557:
	movq	__pyx_n_s_hasAnEdge(%rip), %rax
	movq	%rax, %rdi
	call	__Pyx_GetModuleGlobalName
	movq	%rax, -96(%rbp)
	cmpq	$0, -96(%rbp)
	sete	%al
	movzbl	%al, %eax
	testq	%rax, %rax
	je	.L558
	movq	__pyx_f(%rip), %rax
	movq	%rax, -64(%rbp)
	movl	$91, -68(%rbp)
	movl	$3020, -52(%rbp)
	jmp	.L467
.L558:
	movq	-176(%rbp), %rax
	movl	$1, 16(%rsp)
	movl	$0, 8(%rsp)
	movl	$1, (%rsp)
	movl	$__pyx_slice__6, %r9d
	movl	$0, %r8d
	movl	$0, %ecx
	movl	$0, %edx
	movl	$1, %esi
	movq	%rax, %rdi
	call	__Pyx_PyObject_GetSlice
	movq	%rax, -112(%rbp)
	cmpq	$0, -112(%rbp)
	sete	%al
	movzbl	%al, %eax
	testq	%rax, %rax
	je	.L559
	movq	__pyx_f(%rip), %rax
	movq	%rax, -64(%rbp)
	movl	$91, -68(%rbp)
	movl	$3022, -52(%rbp)
	jmp	.L467
.L559:
	movq	-184(%rbp), %rax
	movl	$1, 16(%rsp)
	movl	$0, 8(%rsp)
	movl	$1, (%rsp)
	movl	$__pyx_slice__7, %r9d
	movl	$0, %r8d
	movl	$0, %ecx
	movl	$0, %edx
	movl	$1, %esi
	movq	%rax, %rdi
	call	__Pyx_PyObject_GetSlice
	movq	%rax, -104(%rbp)
	cmpq	$0, -104(%rbp)
	sete	%al
	movzbl	%al, %eax
	testq	%rax, %rax
	je	.L560
	movq	__pyx_f(%rip), %rax
	movq	%rax, -64(%rbp)
	movl	$91, -68(%rbp)
	movl	$3024, -52(%rbp)
	jmp	.L467
.L560:
	movq	-192(%rbp), %rax
	movl	$1, 16(%rsp)
	movl	$0, 8(%rsp)
	movl	$1, (%rsp)
	movl	$__pyx_slice__8, %r9d
	movl	$0, %r8d
	movl	$0, %ecx
	movl	$0, %edx
	movl	$1, %esi
	movq	%rax, %rdi
	call	__Pyx_PyObject_GetSlice
	movq	%rax, -120(%rbp)
	cmpq	$0, -120(%rbp)
	sete	%al
	movzbl	%al, %eax
	testq	%rax, %rax
	je	.L561
	movq	__pyx_f(%rip), %rax
	movq	%rax, -64(%rbp)
	movl	$91, -68(%rbp)
	movl	$3026, -52(%rbp)
	jmp	.L467
.L561:
	movq	$0, -128(%rbp)
	movq	$0, -144(%rbp)
	movq	-96(%rbp), %rax
	movq	8(%rax), %rax
	cmpq	$PyMethod_Type, %rax
	sete	%al
	movzbl	%al, %eax
	testq	%rax, %rax
	je	.L562
	movq	-96(%rbp), %rax
	movq	24(%rax), %rax
	movq	%rax, -128(%rbp)
	cmpq	$0, -128(%rbp)
	setne	%al
	movzbl	%al, %eax
	testq	%rax, %rax
	je	.L562
	movq	-96(%rbp), %rax
	movq	16(%rax), %rax
	movq	%rax, -16(%rbp)
	movq	-128(%rbp), %rax
	movq	(%rax), %rax
	leaq	1(%rax), %rdx
	movq	-128(%rbp), %rax
	movq	%rdx, (%rax)
	movq	-16(%rbp), %rax
	movq	(%rax), %rax
	leaq	1(%rax), %rdx
	movq	-16(%rbp), %rax
	movq	%rdx, (%rax)
	movq	-96(%rbp), %rax
	movq	%rax, -8(%rbp)
	movq	-16(%rbp), %rax
	movq	%rax, -96(%rbp)
	movq	-8(%rbp), %rax
	movq	(%rax), %rax
	leaq	-1(%rax), %rdx
	movq	-8(%rbp), %rax
	movq	%rdx, (%rax)
	movq	-8(%rbp), %rax
	movq	(%rax), %rax
	testq	%rax, %rax
	jne	.L563
	movq	-8(%rbp), %rax
	movq	8(%rax), %rax
	movq	48(%rax), %rdx
	movq	-8(%rbp), %rax
	movq	%rax, %rdi
	call	*%rdx
.L563:
	movq	$1, -144(%rbp)
.L562:
	movq	-144(%rbp), %rax
	addq	$3, %rax
	movq	%rax, %rdi
	call	PyTuple_New
	movq	%rax, -80(%rbp)
	cmpq	$0, -80(%rbp)
	sete	%al
	movzbl	%al, %eax
	testq	%rax, %rax
	je	.L564
	movq	__pyx_f(%rip), %rax
	movq	%rax, -64(%rbp)
	movl	$91, -68(%rbp)
	movl	$3040, -52(%rbp)
	jmp	.L467
.L564:
	cmpq	$0, -128(%rbp)
	je	.L565
	movq	-80(%rbp), %rax
	movq	-128(%rbp), %rdx
	movq	%rdx, 24(%rax)
	movq	$0, -128(%rbp)
.L565:
	movq	-80(%rbp), %rax
	movq	-144(%rbp), %rdx
	leaq	2(%rdx), %rcx
	movq	-112(%rbp), %rdx
	movq	%rdx, 8(%rax,%rcx,8)
	movq	-80(%rbp), %rax
	movq	-144(%rbp), %rdx
	addq	$1, %rdx
	leaq	2(%rdx), %rcx
	movq	-104(%rbp), %rdx
	movq	%rdx, 8(%rax,%rcx,8)
	movq	-80(%rbp), %rax
	movq	-144(%rbp), %rdx
	addq	$2, %rdx
	leaq	2(%rdx), %rcx
	movq	-120(%rbp), %rdx
	movq	%rdx, 8(%rax,%rcx,8)
	movq	$0, -112(%rbp)
	movq	$0, -104(%rbp)
	movq	$0, -120(%rbp)
	movq	-80(%rbp), %rcx
	movq	-96(%rbp), %rax
	movl	$0, %edx
	movq	%rcx, %rsi
	movq	%rax, %rdi
	call	__Pyx_PyObject_Call
	movq	%rax, -88(%rbp)
	cmpq	$0, -88(%rbp)
	sete	%al
	movzbl	%al, %eax
	testq	%rax, %rax
	je	.L566
	movq	__pyx_f(%rip), %rax
	movq	%rax, -64(%rbp)
	movl	$91, -68(%rbp)
	movl	$3054, -52(%rbp)
	jmp	.L467
.L566:
	movq	-80(%rbp), %rax
	movq	(%rax), %rax
	leaq	-1(%rax), %rdx
	movq	-80(%rbp), %rax
	movq	%rdx, (%rax)
	movq	-80(%rbp), %rax
	movq	(%rax), %rax
	testq	%rax, %rax
	jne	.L567
	movq	-80(%rbp), %rax
	movq	8(%rax), %rax
	movq	48(%rax), %rdx
	movq	-80(%rbp), %rax
	movq	%rax, %rdi
	call	*%rdx
.L567:
	movq	$0, -80(%rbp)
	movq	-96(%rbp), %rax
	movq	(%rax), %rax
	leaq	-1(%rax), %rdx
	movq	-96(%rbp), %rax
	movq	%rdx, (%rax)
	movq	-96(%rbp), %rax
	movq	(%rax), %rax
	testq	%rax, %rax
	jne	.L568
	movq	-96(%rbp), %rax
	movq	8(%rax), %rax
	movq	48(%rax), %rdx
	movq	-96(%rbp), %rax
	movq	%rax, %rdi
	call	*%rdx
.L568:
	movq	$0, -96(%rbp)
	movq	-88(%rbp), %rax
	movq	%rax, -160(%rbp)
	movq	$0, -88(%rbp)
	jmp	.L473
.L556:
	cmpq	$0, -160(%rbp)
	je	.L569
	movq	-160(%rbp), %rax
	movq	(%rax), %rax
	leaq	-1(%rax), %rdx
	movq	-160(%rbp), %rax
	movq	%rdx, (%rax)
	movq	-160(%rbp), %rax
	movq	(%rax), %rax
	testq	%rax, %rax
	jne	.L569
	movq	-160(%rbp), %rax
	movq	8(%rax), %rax
	movq	48(%rax), %rdx
	movq	-160(%rbp), %rax
	movq	%rax, %rdi
	call	*%rdx
.L569:
	movl	$_Py_ZeroStruct, %eax
	movq	(%rax), %rdx
	addq	$1, %rdx
	movq	%rdx, (%rax)
	movq	$_Py_ZeroStruct, -160(%rbp)
	jmp	.L473
.L467:
	cmpq	$0, -128(%rbp)
	je	.L570
	movq	-128(%rbp), %rax
	movq	(%rax), %rax
	leaq	-1(%rax), %rdx
	movq	-128(%rbp), %rax
	movq	%rdx, (%rax)
	movq	-128(%rbp), %rax
	movq	(%rax), %rax
	testq	%rax, %rax
	jne	.L570
	movq	-128(%rbp), %rax
	movq	8(%rax), %rax
	movq	48(%rax), %rdx
	movq	-128(%rbp), %rax
	movq	%rax, %rdi
	call	*%rdx
.L570:
	cmpq	$0, -120(%rbp)
	je	.L571
	movq	-120(%rbp), %rax
	movq	(%rax), %rax
	leaq	-1(%rax), %rdx
	movq	-120(%rbp), %rax
	movq	%rdx, (%rax)
	movq	-120(%rbp), %rax
	movq	(%rax), %rax
	testq	%rax, %rax
	jne	.L571
	movq	-120(%rbp), %rax
	movq	8(%rax), %rax
	movq	48(%rax), %rdx
	movq	-120(%rbp), %rax
	movq	%rax, %rdi
	call	*%rdx
.L571:
	cmpq	$0, -112(%rbp)
	je	.L572
	movq	-112(%rbp), %rax
	movq	(%rax), %rax
	leaq	-1(%rax), %rdx
	movq	-112(%rbp), %rax
	movq	%rdx, (%rax)
	movq	-112(%rbp), %rax
	movq	(%rax), %rax
	testq	%rax, %rax
	jne	.L572
	movq	-112(%rbp), %rax
	movq	8(%rax), %rax
	movq	48(%rax), %rdx
	movq	-112(%rbp), %rax
	movq	%rax, %rdi
	call	*%rdx
.L572:
	cmpq	$0, -104(%rbp)
	je	.L573
	movq	-104(%rbp), %rax
	movq	(%rax), %rax
	leaq	-1(%rax), %rdx
	movq	-104(%rbp), %rax
	movq	%rdx, (%rax)
	movq	-104(%rbp), %rax
	movq	(%rax), %rax
	testq	%rax, %rax
	jne	.L573
	movq	-104(%rbp), %rax
	movq	8(%rax), %rax
	movq	48(%rax), %rdx
	movq	-104(%rbp), %rax
	movq	%rax, %rdi
	call	*%rdx
.L573:
	cmpq	$0, -96(%rbp)
	je	.L574
	movq	-96(%rbp), %rax
	movq	(%rax), %rax
	leaq	-1(%rax), %rdx
	movq	-96(%rbp), %rax
	movq	%rdx, (%rax)
	movq	-96(%rbp), %rax
	movq	(%rax), %rax
	testq	%rax, %rax
	jne	.L574
	movq	-96(%rbp), %rax
	movq	8(%rax), %rax
	movq	48(%rax), %rdx
	movq	-96(%rbp), %rax
	movq	%rax, %rdi
	call	*%rdx
.L574:
	cmpq	$0, -88(%rbp)
	je	.L575
	movq	-88(%rbp), %rax
	movq	(%rax), %rax
	leaq	-1(%rax), %rdx
	movq	-88(%rbp), %rax
	movq	%rdx, (%rax)
	movq	-88(%rbp), %rax
	movq	(%rax), %rax
	testq	%rax, %rax
	jne	.L575
	movq	-88(%rbp), %rax
	movq	8(%rax), %rax
	movq	48(%rax), %rdx
	movq	-88(%rbp), %rax
	movq	%rax, %rdi
	call	*%rdx
.L575:
	cmpq	$0, -80(%rbp)
	je	.L576
	movq	-80(%rbp), %rax
	movq	(%rax), %rax
	leaq	-1(%rax), %rdx
	movq	-80(%rbp), %rax
	movq	%rdx, (%rax)
	movq	-80(%rbp), %rax
	movq	(%rax), %rax
	testq	%rax, %rax
	jne	.L576
	movq	-80(%rbp), %rax
	movq	8(%rax), %rax
	movq	48(%rax), %rdx
	movq	-80(%rbp), %rax
	movq	%rax, %rdi
	call	*%rdx
.L576:
	movq	-64(%rbp), %rcx
	movl	-68(%rbp), %edx
	movl	-52(%rbp), %eax
	movl	%eax, %esi
	movl	$.LC21, %edi
	call	__Pyx_AddTraceback
	movq	$0, -160(%rbp)
.L473:
	movq	-160(%rbp), %rax
	leave
	.cfi_def_cfa 7, 8
	ret
	.cfi_endproc
.LFE22:
	.size	__pyx_pf_8friedman_6hasAnEdge, .-__pyx_pf_8friedman_6hasAnEdge
	.section	.rodata
.LC22:
	.string	"isAnIndependentSet"
	.data
	.align 32
	.type	__pyx_mdef_8friedman_9isAnIndependentSet, @object
	.size	__pyx_mdef_8friedman_9isAnIndependentSet, 32
__pyx_mdef_8friedman_9isAnIndependentSet:
	.quad	.LC22
	.quad	__pyx_pw_8friedman_9isAnIndependentSet
	.long	3
	.zero	4
	.quad	0
	.section	.rodata
.LC23:
	.string	"friedman.isAnIndependentSet"
	.text
	.type	__pyx_pw_8friedman_9isAnIndependentSet, @function
__pyx_pw_8friedman_9isAnIndependentSet:
.LFB23:
	.cfi_startproc
	pushq	%rbp
	.cfi_def_cfa_offset 16
	.cfi_offset 6, -16
	movq	%rsp, %rbp
	.cfi_def_cfa_register 6
	subq	$112, %rsp
	movq	%rdi, -88(%rbp)
	movq	%rsi, -96(%rbp)
	movq	%rdx, -104(%rbp)
	movq	$0, -64(%rbp)
	movq	$0, -56(%rbp)
	movl	$0, -44(%rbp)
	movq	$0, -40(%rbp)
	movl	$0, -28(%rbp)
	movq	$0, -24(%rbp)
	movq	$0, -80(%rbp)
	movq	$0, -72(%rbp)
	cmpq	$0, -104(%rbp)
	setne	%al
	movzbl	%al, %eax
	testq	%rax, %rax
	je	.L579
	movq	-96(%rbp), %rax
	movq	16(%rax), %rax
	movq	%rax, -8(%rbp)
	movq	-8(%rbp), %rax
	cmpq	$1, %rax
	je	.L582
	cmpq	$2, %rax
	je	.L583
	testq	%rax, %rax
	je	.L597
	jmp	.L585
.L583:
	movq	-96(%rbp), %rax
	movq	32(%rax), %rax
	movq	%rax, -72(%rbp)
.L582:
	movq	-96(%rbp), %rax
	movq	24(%rax), %rax
	movq	%rax, -80(%rbp)
	jmp	.L584
.L597:
	nop
.L584:
	movq	-104(%rbp), %rax
	movq	%rax, %rdi
	call	PyDict_Size
	movq	%rax, -16(%rbp)
	movq	-8(%rbp), %rax
	testq	%rax, %rax
	je	.L587
	cmpq	$1, %rax
	je	.L588
	jmp	.L586
.L587:
	movq	__pyx_n_s_setOfKSets(%rip), %rdx
	movq	-104(%rbp), %rax
	movq	%rdx, %rsi
	movq	%rax, %rdi
	call	PyDict_GetItem
	movq	%rax, -80(%rbp)
	movq	-80(%rbp), %rax
	testq	%rax, %rax
	setne	%al
	movzbl	%al, %eax
	testq	%rax, %rax
	je	.L598
	subq	$1, -16(%rbp)
.L588:
	movq	__pyx_n_s_legalOrdering(%rip), %rdx
	movq	-104(%rbp), %rax
	movq	%rdx, %rsi
	movq	%rax, %rdi
	call	PyDict_GetItem
	movq	%rax, -72(%rbp)
	movq	-72(%rbp), %rax
	testq	%rax, %rax
	setne	%al
	movzbl	%al, %eax
	testq	%rax, %rax
	je	.L590
	subq	$1, -16(%rbp)
	jmp	.L586
.L590:
	movl	$1, %r8d
	movl	$2, %ecx
	movl	$2, %edx
	movl	$1, %esi
	movl	$.LC22, %edi
	call	__Pyx_RaiseArgtupleInvalid
	movq	__pyx_f(%rip), %rax
	movq	%rax, -40(%rbp)
	movl	$97, -44(%rbp)
	movl	$3140, -28(%rbp)
	jmp	.L591
.L586:
	cmpq	$0, -16(%rbp)
	setg	%al
	movzbl	%al, %eax
	testq	%rax, %rax
	je	.L592
	movq	-8(%rbp), %rcx
	leaq	-80(%rbp), %rdx
	movq	-104(%rbp), %rax
	movl	$.LC22, %r9d
	movq	%rcx, %r8
	movq	%rdx, %rcx
	movl	$0, %edx
	movl	$__pyx_pyargnames.12802, %esi
	movq	%rax, %rdi
	call	__Pyx_ParseOptionalKeywords
	cltq
	shrq	$63, %rax
	testq	%rax, %rax
	je	.L592
	movq	__pyx_f(%rip), %rax
	movq	%rax, -40(%rbp)
	movl	$97, -44(%rbp)
	movl	$3144, -28(%rbp)
	jmp	.L591
.L579:
	movq	-96(%rbp), %rax
	movq	16(%rax), %rax
	cmpq	$2, %rax
	jne	.L599
.L593:
	movq	-96(%rbp), %rax
	movq	24(%rax), %rax
	movq	%rax, -80(%rbp)
	movq	-96(%rbp), %rax
	movq	32(%rax), %rax
	movq	%rax, -72(%rbp)
.L592:
	movq	-80(%rbp), %rax
	movq	%rax, -64(%rbp)
	movq	-72(%rbp), %rax
	movq	%rax, -56(%rbp)
	nop
.L594:
	movq	-56(%rbp), %rdx
	movq	-64(%rbp), %rcx
	movq	-88(%rbp), %rax
	movq	%rcx, %rsi
	movq	%rax, %rdi
	call	__pyx_pf_8friedman_8isAnIndependentSet
	movq	%rax, -24(%rbp)
	movq	-24(%rbp), %rax
	jmp	.L595
.L598:
	nop
	jmp	.L585
.L599:
	nop
.L585:
	movq	-96(%rbp), %rax
	movq	16(%rax), %rax
	movq	%rax, %r8
	movl	$2, %ecx
	movl	$2, %edx
	movl	$1, %esi
	movl	$.LC22, %edi
	call	__Pyx_RaiseArgtupleInvalid
	movq	__pyx_f(%rip), %rax
	movq	%rax, -40(%rbp)
	movl	$97, -44(%rbp)
	movl	$3157, -28(%rbp)
.L591:
	movq	-40(%rbp), %rcx
	movl	-44(%rbp), %edx
	movl	-28(%rbp), %eax
	movl	%eax, %esi
	movl	$.LC23, %edi
	call	__Pyx_AddTraceback
	movl	$0, %eax
.L595:
	leave
	.cfi_def_cfa 7, 8
	ret
	.cfi_endproc
.LFE23:
	.size	__pyx_pw_8friedman_9isAnIndependentSet, .-__pyx_pw_8friedman_9isAnIndependentSet
	.type	__pyx_pf_8friedman_8isAnIndependentSet, @function
__pyx_pf_8friedman_8isAnIndependentSet:
.LFB24:
	.cfi_startproc
	pushq	%rbp
	.cfi_def_cfa_offset 16
	.cfi_offset 6, -16
	movq	%rsp, %rbp
	.cfi_def_cfa_register 6
	subq	$224, %rsp
	movq	%rdi, -200(%rbp)
	movq	%rsi, -208(%rbp)
	movq	%rdx, -216(%rbp)
	movq	$0, -184(%rbp)
	movq	$0, -176(%rbp)
	movq	$0, -168(%rbp)
	movq	$0, -160(%rbp)
	movq	$0, -136(%rbp)
	movq	$0, -112(%rbp)
	movq	$0, -104(%rbp)
	movq	$0, -96(%rbp)
	movq	$0, -80(%rbp)
	movl	$0, -68(%rbp)
	movq	$0, -64(%rbp)
	movl	$0, -52(%rbp)
	movq	-208(%rbp), %rax
	movq	8(%rax), %rax
	cmpq	$PyList_Type, %rax
	sete	%al
	movzbl	%al, %eax
	testq	%rax, %rax
	jne	.L601
	movq	-208(%rbp), %rax
	movq	8(%rax), %rax
	cmpq	$PyTuple_Type, %rax
	jne	.L602
.L601:
	movq	-208(%rbp), %rax
	movq	%rax, -160(%rbp)
	movq	-160(%rbp), %rax
	movq	(%rax), %rax
	leaq	1(%rax), %rdx
	movq	-160(%rbp), %rax
	movq	%rdx, (%rax)
	movq	$0, -152(%rbp)
	movq	$0, -144(%rbp)
	jmp	.L603
.L602:
	movq	$-1, -152(%rbp)
	movq	-208(%rbp), %rax
	movq	%rax, %rdi
	call	PyObject_GetIter
	movq	%rax, -160(%rbp)
	cmpq	$0, -160(%rbp)
	sete	%al
	movzbl	%al, %eax
	testq	%rax, %rax
	je	.L604
	movq	__pyx_f(%rip), %rax
	movq	%rax, -64(%rbp)
	movl	$98, -68(%rbp)
	movl	$3203, -52(%rbp)
	jmp	.L605
.L604:
	movq	-160(%rbp), %rax
	movq	8(%rax), %rax
	movq	224(%rax), %rax
	movq	%rax, -144(%rbp)
	cmpq	$0, -144(%rbp)
	sete	%al
	movzbl	%al, %eax
	testq	%rax, %rax
	je	.L603
	movq	__pyx_f(%rip), %rax
	movq	%rax, -64(%rbp)
	movl	$98, -68(%rbp)
	movl	$3205, -52(%rbp)
	jmp	.L605
.L603:
	cmpq	$0, -144(%rbp)
	sete	%al
	movzbl	%al, %eax
	testq	%rax, %rax
	je	.L606
	movq	-160(%rbp), %rax
	movq	8(%rax), %rax
	cmpq	$PyList_Type, %rax
	sete	%al
	movzbl	%al, %eax
	testq	%rax, %rax
	je	.L607
	movq	-160(%rbp), %rax
	movq	16(%rax), %rax
	cmpq	-152(%rbp), %rax
	jle	.L659
.L608:
	movq	-160(%rbp), %rax
	movq	24(%rax), %rax
	movq	-152(%rbp), %rdx
	salq	$3, %rdx
	addq	%rdx, %rax
	movq	(%rax), %rax
	movq	%rax, -136(%rbp)
	movq	-136(%rbp), %rax
	movq	(%rax), %rax
	leaq	1(%rax), %rdx
	movq	-136(%rbp), %rax
	movq	%rdx, (%rax)
	addq	$1, -152(%rbp)
	jmp	.L612
.L607:
	movq	-160(%rbp), %rax
	movq	16(%rax), %rax
	cmpq	-152(%rbp), %rax
	jle	.L660
.L611:
	movq	-160(%rbp), %rax
	movq	-152(%rbp), %rdx
	addq	$2, %rdx
	movq	8(%rax,%rdx,8), %rax
	movq	%rax, -136(%rbp)
	movq	-136(%rbp), %rax
	movq	(%rax), %rax
	leaq	1(%rax), %rdx
	movq	-136(%rbp), %rax
	movq	%rdx, (%rax)
	addq	$1, -152(%rbp)
	jmp	.L612
.L606:
	movq	-160(%rbp), %rax
	movq	-144(%rbp), %rdx
	movq	%rax, %rdi
	call	*%rdx
	movq	%rax, -136(%rbp)
	cmpq	$0, -136(%rbp)
	sete	%al
	movzbl	%al, %eax
	testq	%rax, %rax
	je	.L612
	call	PyErr_Occurred
	movq	%rax, -48(%rbp)
	cmpq	$0, -48(%rbp)
	je	.L661
	movq	PyExc_StopIteration(%rip), %rax
	cmpq	%rax, -48(%rbp)
	sete	%al
	movzbl	%al, %eax
	testq	%rax, %rax
	jne	.L614
	movq	PyExc_StopIteration(%rip), %rdx
	movq	-48(%rbp), %rax
	movq	%rdx, %rsi
	movq	%rax, %rdi
	call	PyErr_GivenExceptionMatches
	testl	%eax, %eax
	setne	%al
	movzbl	%al, %eax
	testq	%rax, %rax
	je	.L615
.L614:
	call	PyErr_Clear
	nop
	jmp	.L609
.L615:
	movq	__pyx_f(%rip), %rax
	movq	%rax, -64(%rbp)
	movl	$98, -68(%rbp)
	movl	$3230, -52(%rbp)
	jmp	.L605
.L612:
	movq	-184(%rbp), %rax
	movq	%rax, -40(%rbp)
	movq	-136(%rbp), %rax
	movq	%rax, -184(%rbp)
	cmpq	$0, -40(%rbp)
	je	.L616
	movq	-40(%rbp), %rax
	movq	(%rax), %rax
	leaq	-1(%rax), %rdx
	movq	-40(%rbp), %rax
	movq	%rdx, (%rax)
	movq	-40(%rbp), %rax
	movq	(%rax), %rax
	testq	%rax, %rax
	jne	.L616
	movq	-40(%rbp), %rax
	movq	8(%rax), %rax
	movq	48(%rax), %rdx
	movq	-40(%rbp), %rax
	movq	%rax, %rdi
	call	*%rdx
.L616:
	movq	$0, -136(%rbp)
	movq	-208(%rbp), %rax
	movq	8(%rax), %rax
	cmpq	$PyList_Type, %rax
	sete	%al
	movzbl	%al, %eax
	testq	%rax, %rax
	jne	.L617
	movq	-208(%rbp), %rax
	movq	8(%rax), %rax
	cmpq	$PyTuple_Type, %rax
	jne	.L618
.L617:
	movq	-208(%rbp), %rax
	movq	%rax, -136(%rbp)
	movq	-136(%rbp), %rax
	movq	(%rax), %rax
	leaq	1(%rax), %rdx
	movq	-136(%rbp), %rax
	movq	%rdx, (%rax)
	movq	$0, -128(%rbp)
	movq	$0, -120(%rbp)
	jmp	.L619
.L618:
	movq	$-1, -128(%rbp)
	movq	-208(%rbp), %rax
	movq	%rax, %rdi
	call	PyObject_GetIter
	movq	%rax, -136(%rbp)
	cmpq	$0, -136(%rbp)
	sete	%al
	movzbl	%al, %eax
	testq	%rax, %rax
	je	.L620
	movq	__pyx_f(%rip), %rax
	movq	%rax, -64(%rbp)
	movl	$99, -68(%rbp)
	movl	$3250, -52(%rbp)
	jmp	.L605
.L620:
	movq	-136(%rbp), %rax
	movq	8(%rax), %rax
	movq	224(%rax), %rax
	movq	%rax, -120(%rbp)
	cmpq	$0, -120(%rbp)
	sete	%al
	movzbl	%al, %eax
	testq	%rax, %rax
	je	.L619
	movq	__pyx_f(%rip), %rax
	movq	%rax, -64(%rbp)
	movl	$99, -68(%rbp)
	movl	$3252, -52(%rbp)
	jmp	.L605
.L665:
	nop
.L619:
	cmpq	$0, -120(%rbp)
	sete	%al
	movzbl	%al, %eax
	testq	%rax, %rax
	je	.L621
	movq	-136(%rbp), %rax
	movq	8(%rax), %rax
	cmpq	$PyList_Type, %rax
	sete	%al
	movzbl	%al, %eax
	testq	%rax, %rax
	je	.L622
	movq	-136(%rbp), %rax
	movq	16(%rax), %rax
	cmpq	-128(%rbp), %rax
	jle	.L662
.L623:
	movq	-136(%rbp), %rax
	movq	24(%rax), %rax
	movq	-128(%rbp), %rdx
	salq	$3, %rdx
	addq	%rdx, %rax
	movq	(%rax), %rax
	movq	%rax, -112(%rbp)
	movq	-112(%rbp), %rax
	movq	(%rax), %rax
	leaq	1(%rax), %rdx
	movq	-112(%rbp), %rax
	movq	%rdx, (%rax)
	addq	$1, -128(%rbp)
	jmp	.L627
.L622:
	movq	-136(%rbp), %rax
	movq	16(%rax), %rax
	cmpq	-128(%rbp), %rax
	jle	.L663
.L626:
	movq	-136(%rbp), %rax
	movq	-128(%rbp), %rdx
	addq	$2, %rdx
	movq	8(%rax,%rdx,8), %rax
	movq	%rax, -112(%rbp)
	movq	-112(%rbp), %rax
	movq	(%rax), %rax
	leaq	1(%rax), %rdx
	movq	-112(%rbp), %rax
	movq	%rdx, (%rax)
	addq	$1, -128(%rbp)
	jmp	.L627
.L621:
	movq	-136(%rbp), %rax
	movq	-120(%rbp), %rdx
	movq	%rax, %rdi
	call	*%rdx
	movq	%rax, -112(%rbp)
	cmpq	$0, -112(%rbp)
	sete	%al
	movzbl	%al, %eax
	testq	%rax, %rax
	je	.L627
	call	PyErr_Occurred
	movq	%rax, -32(%rbp)
	cmpq	$0, -32(%rbp)
	je	.L664
	movq	PyExc_StopIteration(%rip), %rax
	cmpq	%rax, -32(%rbp)
	sete	%al
	movzbl	%al, %eax
	testq	%rax, %rax
	jne	.L629
	movq	PyExc_StopIteration(%rip), %rdx
	movq	-32(%rbp), %rax
	movq	%rdx, %rsi
	movq	%rax, %rdi
	call	PyErr_GivenExceptionMatches
	testl	%eax, %eax
	setne	%al
	movzbl	%al, %eax
	testq	%rax, %rax
	je	.L630
.L629:
	call	PyErr_Clear
	nop
	jmp	.L624
.L630:
	movq	__pyx_f(%rip), %rax
	movq	%rax, -64(%rbp)
	movl	$99, -68(%rbp)
	movl	$3277, -52(%rbp)
	jmp	.L605
.L627:
	movq	-176(%rbp), %rax
	movq	%rax, -24(%rbp)
	movq	-112(%rbp), %rax
	movq	%rax, -176(%rbp)
	cmpq	$0, -24(%rbp)
	je	.L631
	movq	-24(%rbp), %rax
	movq	(%rax), %rax
	leaq	-1(%rax), %rdx
	movq	-24(%rbp), %rax
	movq	%rdx, (%rax)
	movq	-24(%rbp), %rax
	movq	(%rax), %rax
	testq	%rax, %rax
	jne	.L631
	movq	-24(%rbp), %rax
	movq	8(%rax), %rax
	movq	48(%rax), %rdx
	movq	-24(%rbp), %rax
	movq	%rax, %rdi
	call	*%rdx
.L631:
	movq	$0, -112(%rbp)
	movq	__pyx_n_s_hasAnEdge(%rip), %rax
	movq	%rax, %rdi
	call	__Pyx_GetModuleGlobalName
	movq	%rax, -104(%rbp)
	cmpq	$0, -104(%rbp)
	sete	%al
	movzbl	%al, %eax
	testq	%rax, %rax
	je	.L632
	movq	__pyx_f(%rip), %rax
	movq	%rax, -64(%rbp)
	movl	$100, -68(%rbp)
	movl	$3293, -52(%rbp)
	jmp	.L605
.L632:
	movq	$0, -96(%rbp)
	movq	$0, -88(%rbp)
	movq	-104(%rbp), %rax
	movq	8(%rax), %rax
	cmpq	$PyMethod_Type, %rax
	sete	%al
	movzbl	%al, %eax
	testq	%rax, %rax
	je	.L633
	movq	-104(%rbp), %rax
	movq	24(%rax), %rax
	movq	%rax, -96(%rbp)
	cmpq	$0, -96(%rbp)
	setne	%al
	movzbl	%al, %eax
	testq	%rax, %rax
	je	.L633
	movq	-104(%rbp), %rax
	movq	16(%rax), %rax
	movq	%rax, -16(%rbp)
	movq	-96(%rbp), %rax
	movq	(%rax), %rax
	leaq	1(%rax), %rdx
	movq	-96(%rbp), %rax
	movq	%rdx, (%rax)
	movq	-16(%rbp), %rax
	movq	(%rax), %rax
	leaq	1(%rax), %rdx
	movq	-16(%rbp), %rax
	movq	%rdx, (%rax)
	movq	-104(%rbp), %rax
	movq	%rax, -8(%rbp)
	movq	-16(%rbp), %rax
	movq	%rax, -104(%rbp)
	movq	-8(%rbp), %rax
	movq	(%rax), %rax
	leaq	-1(%rax), %rdx
	movq	-8(%rbp), %rax
	movq	%rdx, (%rax)
	movq	-8(%rbp), %rax
	movq	(%rax), %rax
	testq	%rax, %rax
	jne	.L634
	movq	-8(%rbp), %rax
	movq	8(%rax), %rax
	movq	48(%rax), %rdx
	movq	-8(%rbp), %rax
	movq	%rax, %rdi
	call	*%rdx
.L634:
	movq	$1, -88(%rbp)
.L633:
	movq	-88(%rbp), %rax
	addq	$3, %rax
	movq	%rax, %rdi
	call	PyTuple_New
	movq	%rax, -80(%rbp)
	cmpq	$0, -80(%rbp)
	sete	%al
	movzbl	%al, %eax
	testq	%rax, %rax
	je	.L635
	movq	__pyx_f(%rip), %rax
	movq	%rax, -64(%rbp)
	movl	$100, -68(%rbp)
	movl	$3307, -52(%rbp)
	jmp	.L605
.L635:
	cmpq	$0, -96(%rbp)
	je	.L636
	movq	-80(%rbp), %rax
	movq	-96(%rbp), %rdx
	movq	%rdx, 24(%rax)
	movq	$0, -96(%rbp)
.L636:
	movq	-184(%rbp), %rax
	movq	(%rax), %rax
	leaq	1(%rax), %rdx
	movq	-184(%rbp), %rax
	movq	%rdx, (%rax)
	movq	-80(%rbp), %rax
	movq	-88(%rbp), %rdx
	leaq	2(%rdx), %rcx
	movq	-184(%rbp), %rdx
	movq	%rdx, 8(%rax,%rcx,8)
	movq	-176(%rbp), %rax
	movq	(%rax), %rax
	leaq	1(%rax), %rdx
	movq	-176(%rbp), %rax
	movq	%rdx, (%rax)
	movq	-80(%rbp), %rax
	movq	-88(%rbp), %rdx
	addq	$1, %rdx
	leaq	2(%rdx), %rcx
	movq	-176(%rbp), %rdx
	movq	%rdx, 8(%rax,%rcx,8)
	movq	-216(%rbp), %rax
	movq	(%rax), %rax
	leaq	1(%rax), %rdx
	movq	-216(%rbp), %rax
	movq	%rdx, (%rax)
	movq	-80(%rbp), %rax
	movq	-88(%rbp), %rdx
	addq	$2, %rdx
	leaq	2(%rdx), %rcx
	movq	-216(%rbp), %rdx
	movq	%rdx, 8(%rax,%rcx,8)
	movq	-80(%rbp), %rcx
	movq	-104(%rbp), %rax
	movl	$0, %edx
	movq	%rcx, %rsi
	movq	%rax, %rdi
	call	__Pyx_PyObject_Call
	movq	%rax, -112(%rbp)
	cmpq	$0, -112(%rbp)
	sete	%al
	movzbl	%al, %eax
	testq	%rax, %rax
	je	.L637
	movq	__pyx_f(%rip), %rax
	movq	%rax, -64(%rbp)
	movl	$100, -68(%rbp)
	movl	$3321, -52(%rbp)
	jmp	.L605
.L637:
	movq	-80(%rbp), %rax
	movq	(%rax), %rax
	leaq	-1(%rax), %rdx
	movq	-80(%rbp), %rax
	movq	%rdx, (%rax)
	movq	-80(%rbp), %rax
	movq	(%rax), %rax
	testq	%rax, %rax
	jne	.L638
	movq	-80(%rbp), %rax
	movq	8(%rax), %rax
	movq	48(%rax), %rdx
	movq	-80(%rbp), %rax
	movq	%rax, %rdi
	call	*%rdx
.L638:
	movq	$0, -80(%rbp)
	movq	-104(%rbp), %rax
	movq	(%rax), %rax
	leaq	-1(%rax), %rdx
	movq	-104(%rbp), %rax
	movq	%rdx, (%rax)
	movq	-104(%rbp), %rax
	movq	(%rax), %rax
	testq	%rax, %rax
	jne	.L639
	movq	-104(%rbp), %rax
	movq	8(%rax), %rax
	movq	48(%rax), %rdx
	movq	-104(%rbp), %rax
	movq	%rax, %rdi
	call	*%rdx
.L639:
	movq	$0, -104(%rbp)
	movq	-112(%rbp), %rax
	movq	%rax, %rdi
	call	__Pyx_PyObject_IsTrue
	movl	%eax, -72(%rbp)
	movl	-72(%rbp), %eax
	cltq
	shrq	$63, %rax
	testq	%rax, %rax
	je	.L640
	movq	__pyx_f(%rip), %rax
	movq	%rax, -64(%rbp)
	movl	$100, -68(%rbp)
	movl	$3325, -52(%rbp)
	jmp	.L605
.L640:
	movq	-112(%rbp), %rax
	movq	(%rax), %rax
	leaq	-1(%rax), %rdx
	movq	-112(%rbp), %rax
	movq	%rdx, (%rax)
	movq	-112(%rbp), %rax
	movq	(%rax), %rax
	testq	%rax, %rax
	jne	.L641
	movq	-112(%rbp), %rax
	movq	8(%rax), %rax
	movq	48(%rax), %rdx
	movq	-112(%rbp), %rax
	movq	%rax, %rdi
	call	*%rdx
.L641:
	movq	$0, -112(%rbp)
	cmpl	$0, -72(%rbp)
	je	.L665
	cmpq	$0, -168(%rbp)
	je	.L643
	movq	-168(%rbp), %rax
	movq	(%rax), %rax
	leaq	-1(%rax), %rdx
	movq	-168(%rbp), %rax
	movq	%rdx, (%rax)
	movq	-168(%rbp), %rax
	movq	(%rax), %rax
	testq	%rax, %rax
	jne	.L643
	movq	-168(%rbp), %rax
	movq	8(%rax), %rax
	movq	48(%rax), %rdx
	movq	-168(%rbp), %rax
	movq	%rax, %rdi
	call	*%rdx
.L643:
	movl	$_Py_ZeroStruct, %eax
	movq	(%rax), %rdx
	addq	$1, %rdx
	movq	%rdx, (%rax)
	movq	$_Py_ZeroStruct, -168(%rbp)
	movq	-160(%rbp), %rax
	movq	(%rax), %rax
	leaq	-1(%rax), %rdx
	movq	-160(%rbp), %rax
	movq	%rdx, (%rax)
	movq	-160(%rbp), %rax
	movq	(%rax), %rax
	testq	%rax, %rax
	jne	.L644
	movq	-160(%rbp), %rax
	movq	8(%rax), %rax
	movq	48(%rax), %rdx
	movq	-160(%rbp), %rax
	movq	%rax, %rdi
	call	*%rdx
.L644:
	movq	$0, -160(%rbp)
	movq	-136(%rbp), %rax
	movq	(%rax), %rax
	leaq	-1(%rax), %rdx
	movq	-136(%rbp), %rax
	movq	%rdx, (%rax)
	movq	-136(%rbp), %rax
	movq	(%rax), %rax
	testq	%rax, %rax
	jne	.L645
	movq	-136(%rbp), %rax
	movq	8(%rax), %rax
	movq	48(%rax), %rdx
	movq	-136(%rbp), %rax
	movq	%rax, %rdi
	call	*%rdx
.L645:
	movq	$0, -136(%rbp)
	jmp	.L646
.L662:
	nop
	jmp	.L624
.L663:
	nop
	jmp	.L624
.L664:
	nop
.L624:
	movq	-136(%rbp), %rax
	movq	(%rax), %rax
	leaq	-1(%rax), %rdx
	movq	-136(%rbp), %rax
	movq	%rdx, (%rax)
	movq	-136(%rbp), %rax
	movq	(%rax), %rax
	testq	%rax, %rax
	jne	.L647
	movq	-136(%rbp), %rax
	movq	8(%rax), %rax
	movq	48(%rax), %rdx
	movq	-136(%rbp), %rax
	movq	%rax, %rdi
	call	*%rdx
.L647:
	movq	$0, -136(%rbp)
	jmp	.L603
.L659:
	nop
	jmp	.L609
.L660:
	nop
	jmp	.L609
.L661:
	nop
.L609:
	movq	-160(%rbp), %rax
	movq	(%rax), %rax
	leaq	-1(%rax), %rdx
	movq	-160(%rbp), %rax
	movq	%rdx, (%rax)
	movq	-160(%rbp), %rax
	movq	(%rax), %rax
	testq	%rax, %rax
	jne	.L648
	movq	-160(%rbp), %rax
	movq	8(%rax), %rax
	movq	48(%rax), %rdx
	movq	-160(%rbp), %rax
	movq	%rax, %rdi
	call	*%rdx
.L648:
	movq	$0, -160(%rbp)
	cmpq	$0, -168(%rbp)
	je	.L649
	movq	-168(%rbp), %rax
	movq	(%rax), %rax
	leaq	-1(%rax), %rdx
	movq	-168(%rbp), %rax
	movq	%rdx, (%rax)
	movq	-168(%rbp), %rax
	movq	(%rax), %rax
	testq	%rax, %rax
	jne	.L649
	movq	-168(%rbp), %rax
	movq	8(%rax), %rax
	movq	48(%rax), %rdx
	movq	-168(%rbp), %rax
	movq	%rax, %rdi
	call	*%rdx
.L649:
	movl	$_Py_TrueStruct, %eax
	movq	(%rax), %rdx
	addq	$1, %rdx
	movq	%rdx, (%rax)
	movq	$_Py_TrueStruct, -168(%rbp)
	jmp	.L646
.L605:
	cmpq	$0, -160(%rbp)
	je	.L650
	movq	-160(%rbp), %rax
	movq	(%rax), %rax
	leaq	-1(%rax), %rdx
	movq	-160(%rbp), %rax
	movq	%rdx, (%rax)
	movq	-160(%rbp), %rax
	movq	(%rax), %rax
	testq	%rax, %rax
	jne	.L650
	movq	-160(%rbp), %rax
	movq	8(%rax), %rax
	movq	48(%rax), %rdx
	movq	-160(%rbp), %rax
	movq	%rax, %rdi
	call	*%rdx
.L650:
	cmpq	$0, -136(%rbp)
	je	.L651
	movq	-136(%rbp), %rax
	movq	(%rax), %rax
	leaq	-1(%rax), %rdx
	movq	-136(%rbp), %rax
	movq	%rdx, (%rax)
	movq	-136(%rbp), %rax
	movq	(%rax), %rax
	testq	%rax, %rax
	jne	.L651
	movq	-136(%rbp), %rax
	movq	8(%rax), %rax
	movq	48(%rax), %rdx
	movq	-136(%rbp), %rax
	movq	%rax, %rdi
	call	*%rdx
.L651:
	cmpq	$0, -112(%rbp)
	je	.L652
	movq	-112(%rbp), %rax
	movq	(%rax), %rax
	leaq	-1(%rax), %rdx
	movq	-112(%rbp), %rax
	movq	%rdx, (%rax)
	movq	-112(%rbp), %rax
	movq	(%rax), %rax
	testq	%rax, %rax
	jne	.L652
	movq	-112(%rbp), %rax
	movq	8(%rax), %rax
	movq	48(%rax), %rdx
	movq	-112(%rbp), %rax
	movq	%rax, %rdi
	call	*%rdx
.L652:
	cmpq	$0, -104(%rbp)
	je	.L653
	movq	-104(%rbp), %rax
	movq	(%rax), %rax
	leaq	-1(%rax), %rdx
	movq	-104(%rbp), %rax
	movq	%rdx, (%rax)
	movq	-104(%rbp), %rax
	movq	(%rax), %rax
	testq	%rax, %rax
	jne	.L653
	movq	-104(%rbp), %rax
	movq	8(%rax), %rax
	movq	48(%rax), %rdx
	movq	-104(%rbp), %rax
	movq	%rax, %rdi
	call	*%rdx
.L653:
	cmpq	$0, -96(%rbp)
	je	.L654
	movq	-96(%rbp), %rax
	movq	(%rax), %rax
	leaq	-1(%rax), %rdx
	movq	-96(%rbp), %rax
	movq	%rdx, (%rax)
	movq	-96(%rbp), %rax
	movq	(%rax), %rax
	testq	%rax, %rax
	jne	.L654
	movq	-96(%rbp), %rax
	movq	8(%rax), %rax
	movq	48(%rax), %rdx
	movq	-96(%rbp), %rax
	movq	%rax, %rdi
	call	*%rdx
.L654:
	cmpq	$0, -80(%rbp)
	je	.L655
	movq	-80(%rbp), %rax
	movq	(%rax), %rax
	leaq	-1(%rax), %rdx
	movq	-80(%rbp), %rax
	movq	%rdx, (%rax)
	movq	-80(%rbp), %rax
	movq	(%rax), %rax
	testq	%rax, %rax
	jne	.L655
	movq	-80(%rbp), %rax
	movq	8(%rax), %rax
	movq	48(%rax), %rdx
	movq	-80(%rbp), %rax
	movq	%rax, %rdi
	call	*%rdx
.L655:
	movq	-64(%rbp), %rcx
	movl	-68(%rbp), %edx
	movl	-52(%rbp), %eax
	movl	%eax, %esi
	movl	$.LC23, %edi
	call	__Pyx_AddTraceback
	movq	$0, -168(%rbp)
.L646:
	cmpq	$0, -184(%rbp)
	je	.L656
	movq	-184(%rbp), %rax
	movq	(%rax), %rax
	leaq	-1(%rax), %rdx
	movq	-184(%rbp), %rax
	movq	%rdx, (%rax)
	movq	-184(%rbp), %rax
	movq	(%rax), %rax
	testq	%rax, %rax
	jne	.L656
	movq	-184(%rbp), %rax
	movq	8(%rax), %rax
	movq	48(%rax), %rdx
	movq	-184(%rbp), %rax
	movq	%rax, %rdi
	call	*%rdx
.L656:
	cmpq	$0, -176(%rbp)
	je	.L657
	movq	-176(%rbp), %rax
	movq	(%rax), %rax
	leaq	-1(%rax), %rdx
	movq	-176(%rbp), %rax
	movq	%rdx, (%rax)
	movq	-176(%rbp), %rax
	movq	(%rax), %rax
	testq	%rax, %rax
	jne	.L657
	movq	-176(%rbp), %rax
	movq	8(%rax), %rax
	movq	48(%rax), %rdx
	movq	-176(%rbp), %rax
	movq	%rax, %rdi
	call	*%rdx
.L657:
	movq	-168(%rbp), %rax
	leave
	.cfi_def_cfa 7, 8
	ret
	.cfi_endproc
.LFE24:
	.size	__pyx_pf_8friedman_8isAnIndependentSet, .-__pyx_pf_8friedman_8isAnIndependentSet
	.section	.rodata
.LC24:
	.string	"allOrderings"
	.data
	.align 32
	.type	__pyx_mdef_8friedman_11allOrderings, @object
	.size	__pyx_mdef_8friedman_11allOrderings, 32
__pyx_mdef_8friedman_11allOrderings:
	.quad	.LC24
	.quad	__pyx_pw_8friedman_11allOrderings
	.long	8
	.zero	4
	.quad	0
	.text
	.type	__pyx_pw_8friedman_11allOrderings, @function
__pyx_pw_8friedman_11allOrderings:
.LFB25:
	.cfi_startproc
	pushq	%rbp
	.cfi_def_cfa_offset 16
	.cfi_offset 6, -16
	movq	%rsp, %rbp
	.cfi_def_cfa_register 6
	subq	$32, %rsp
	movq	%rdi, -24(%rbp)
	movq	%rsi, -32(%rbp)
	movq	$0, -8(%rbp)
	movq	-32(%rbp), %rdx
	movq	-24(%rbp), %rax
	movq	%rdx, %rsi
	movq	%rax, %rdi
	call	__pyx_pf_8friedman_10allOrderings
	movq	%rax, -8(%rbp)
	movq	-8(%rbp), %rax
	leave
	.cfi_def_cfa 7, 8
	ret
	.cfi_endproc
.LFE25:
	.size	__pyx_pw_8friedman_11allOrderings, .-__pyx_pw_8friedman_11allOrderings
	.section	.rodata
.LC25:
	.string	"friedman.allOrderings"
	.text
	.type	__pyx_pf_8friedman_10allOrderings, @function
__pyx_pf_8friedman_10allOrderings:
.LFB26:
	.cfi_startproc
	pushq	%rbp
	.cfi_def_cfa_offset 16
	.cfi_offset 6, -16
	movq	%rsp, %rbp
	.cfi_def_cfa_register 6
	subq	$112, %rsp
	movq	%rdi, -104(%rbp)
	movq	%rsi, -112(%rbp)
	movq	$0, -96(%rbp)
	movq	$0, -88(%rbp)
	movq	$0, -80(%rbp)
	movq	$0, -72(%rbp)
	movq	$0, -64(%rbp)
	movq	$0, -48(%rbp)
	movl	$0, -36(%rbp)
	movq	$0, -32(%rbp)
	movl	$0, -20(%rbp)
	cmpq	$0, -96(%rbp)
	je	.L669
	movq	-96(%rbp), %rax
	movq	(%rax), %rax
	leaq	-1(%rax), %rdx
	movq	-96(%rbp), %rax
	movq	%rdx, (%rax)
	movq	-96(%rbp), %rax
	movq	(%rax), %rax
	testq	%rax, %rax
	jne	.L669
	movq	-96(%rbp), %rax
	movq	8(%rax), %rax
	movq	48(%rax), %rdx
	movq	-96(%rbp), %rax
	movq	%rax, %rdi
	call	*%rdx
.L669:
	movq	__pyx_n_s_allOrderingsWithZeroes(%rip), %rax
	movq	%rax, %rdi
	call	__Pyx_GetModuleGlobalName
	movq	%rax, -80(%rbp)
	cmpq	$0, -80(%rbp)
	sete	%al
	movzbl	%al, %eax
	testq	%rax, %rax
	je	.L670
	movq	__pyx_f(%rip), %rax
	movq	%rax, -32(%rbp)
	movl	$106, -36(%rbp)
	movl	$3446, -20(%rbp)
	jmp	.L671
.L670:
	movq	__pyx_int_2(%rip), %rax
	movq	-112(%rbp), %rdx
	movq	%rdx, %rsi
	movq	%rax, %rdi
	call	PyNumber_Multiply
	movq	%rax, -72(%rbp)
	cmpq	$0, -72(%rbp)
	sete	%al
	movzbl	%al, %eax
	testq	%rax, %rax
	je	.L672
	movq	__pyx_f(%rip), %rax
	movq	%rax, -32(%rbp)
	movl	$106, -36(%rbp)
	movl	$3448, -20(%rbp)
	jmp	.L671
.L672:
	movq	$0, -64(%rbp)
	movq	$0, -56(%rbp)
	movq	-80(%rbp), %rax
	movq	8(%rax), %rax
	cmpq	$PyMethod_Type, %rax
	sete	%al
	movzbl	%al, %eax
	testq	%rax, %rax
	je	.L673
	movq	-80(%rbp), %rax
	movq	24(%rax), %rax
	movq	%rax, -64(%rbp)
	cmpq	$0, -64(%rbp)
	setne	%al
	movzbl	%al, %eax
	testq	%rax, %rax
	je	.L673
	movq	-80(%rbp), %rax
	movq	16(%rax), %rax
	movq	%rax, -16(%rbp)
	movq	-64(%rbp), %rax
	movq	(%rax), %rax
	leaq	1(%rax), %rdx
	movq	-64(%rbp), %rax
	movq	%rdx, (%rax)
	movq	-16(%rbp), %rax
	movq	(%rax), %rax
	leaq	1(%rax), %rdx
	movq	-16(%rbp), %rax
	movq	%rdx, (%rax)
	movq	-80(%rbp), %rax
	movq	%rax, -8(%rbp)
	movq	-16(%rbp), %rax
	movq	%rax, -80(%rbp)
	movq	-8(%rbp), %rax
	movq	(%rax), %rax
	leaq	-1(%rax), %rdx
	movq	-8(%rbp), %rax
	movq	%rdx, (%rax)
	movq	-8(%rbp), %rax
	movq	(%rax), %rax
	testq	%rax, %rax
	jne	.L674
	movq	-8(%rbp), %rax
	movq	8(%rax), %rax
	movq	48(%rax), %rdx
	movq	-8(%rbp), %rax
	movq	%rax, %rdi
	call	*%rdx
.L674:
	movq	$1, -56(%rbp)
.L673:
	movq	-56(%rbp), %rax
	addq	$2, %rax
	movq	%rax, %rdi
	call	PyTuple_New
	movq	%rax, -48(%rbp)
	cmpq	$0, -48(%rbp)
	sete	%al
	movzbl	%al, %eax
	testq	%rax, %rax
	je	.L675
	movq	__pyx_f(%rip), %rax
	movq	%rax, -32(%rbp)
	movl	$106, -36(%rbp)
	movl	$3462, -20(%rbp)
	jmp	.L671
.L675:
	cmpq	$0, -64(%rbp)
	je	.L676
	movq	-48(%rbp), %rax
	movq	-64(%rbp), %rdx
	movq	%rdx, 24(%rax)
	movq	$0, -64(%rbp)
.L676:
	movq	-48(%rbp), %rax
	movq	-56(%rbp), %rdx
	leaq	2(%rdx), %rcx
	movq	-72(%rbp), %rdx
	movq	%rdx, 8(%rax,%rcx,8)
	movq	__pyx_int_0(%rip), %rax
	movq	(%rax), %rdx
	addq	$1, %rdx
	movq	%rdx, (%rax)
	movq	-48(%rbp), %rax
	movq	-56(%rbp), %rdx
	leaq	1(%rdx), %rcx
	movq	__pyx_int_0(%rip), %rdx
	addq	$2, %rcx
	movq	%rdx, 8(%rax,%rcx,8)
	movq	$0, -72(%rbp)
	movq	-48(%rbp), %rcx
	movq	-80(%rbp), %rax
	movl	$0, %edx
	movq	%rcx, %rsi
	movq	%rax, %rdi
	call	__Pyx_PyObject_Call
	movq	%rax, -88(%rbp)
	cmpq	$0, -88(%rbp)
	sete	%al
	movzbl	%al, %eax
	testq	%rax, %rax
	je	.L677
	movq	__pyx_f(%rip), %rax
	movq	%rax, -32(%rbp)
	movl	$106, -36(%rbp)
	movl	$3473, -20(%rbp)
	jmp	.L671
.L677:
	movq	-48(%rbp), %rax
	movq	(%rax), %rax
	leaq	-1(%rax), %rdx
	movq	-48(%rbp), %rax
	movq	%rdx, (%rax)
	movq	-48(%rbp), %rax
	movq	(%rax), %rax
	testq	%rax, %rax
	jne	.L678
	movq	-48(%rbp), %rax
	movq	8(%rax), %rax
	movq	48(%rax), %rdx
	movq	-48(%rbp), %rax
	movq	%rax, %rdi
	call	*%rdx
.L678:
	movq	$0, -48(%rbp)
	movq	-80(%rbp), %rax
	movq	(%rax), %rax
	leaq	-1(%rax), %rdx
	movq	-80(%rbp), %rax
	movq	%rdx, (%rax)
	movq	-80(%rbp), %rax
	movq	(%rax), %rax
	testq	%rax, %rax
	jne	.L679
	movq	-80(%rbp), %rax
	movq	8(%rax), %rax
	movq	48(%rax), %rdx
	movq	-80(%rbp), %rax
	movq	%rax, %rdi
	call	*%rdx
.L679:
	movq	$0, -80(%rbp)
	movq	-88(%rbp), %rax
	movq	%rax, -96(%rbp)
	movq	$0, -88(%rbp)
	jmp	.L680
.L671:
	cmpq	$0, -88(%rbp)
	je	.L681
	movq	-88(%rbp), %rax
	movq	(%rax), %rax
	leaq	-1(%rax), %rdx
	movq	-88(%rbp), %rax
	movq	%rdx, (%rax)
	movq	-88(%rbp), %rax
	movq	(%rax), %rax
	testq	%rax, %rax
	jne	.L681
	movq	-88(%rbp), %rax
	movq	8(%rax), %rax
	movq	48(%rax), %rdx
	movq	-88(%rbp), %rax
	movq	%rax, %rdi
	call	*%rdx
.L681:
	cmpq	$0, -80(%rbp)
	je	.L682
	movq	-80(%rbp), %rax
	movq	(%rax), %rax
	leaq	-1(%rax), %rdx
	movq	-80(%rbp), %rax
	movq	%rdx, (%rax)
	movq	-80(%rbp), %rax
	movq	(%rax), %rax
	testq	%rax, %rax
	jne	.L682
	movq	-80(%rbp), %rax
	movq	8(%rax), %rax
	movq	48(%rax), %rdx
	movq	-80(%rbp), %rax
	movq	%rax, %rdi
	call	*%rdx
.L682:
	cmpq	$0, -72(%rbp)
	je	.L683
	movq	-72(%rbp), %rax
	movq	(%rax), %rax
	leaq	-1(%rax), %rdx
	movq	-72(%rbp), %rax
	movq	%rdx, (%rax)
	movq	-72(%rbp), %rax
	movq	(%rax), %rax
	testq	%rax, %rax
	jne	.L683
	movq	-72(%rbp), %rax
	movq	8(%rax), %rax
	movq	48(%rax), %rdx
	movq	-72(%rbp), %rax
	movq	%rax, %rdi
	call	*%rdx
.L683:
	cmpq	$0, -64(%rbp)
	je	.L684
	movq	-64(%rbp), %rax
	movq	(%rax), %rax
	leaq	-1(%rax), %rdx
	movq	-64(%rbp), %rax
	movq	%rdx, (%rax)
	movq	-64(%rbp), %rax
	movq	(%rax), %rax
	testq	%rax, %rax
	jne	.L684
	movq	-64(%rbp), %rax
	movq	8(%rax), %rax
	movq	48(%rax), %rdx
	movq	-64(%rbp), %rax
	movq	%rax, %rdi
	call	*%rdx
.L684:
	cmpq	$0, -48(%rbp)
	je	.L685
	movq	-48(%rbp), %rax
	movq	(%rax), %rax
	leaq	-1(%rax), %rdx
	movq	-48(%rbp), %rax
	movq	%rdx, (%rax)
	movq	-48(%rbp), %rax
	movq	(%rax), %rax
	testq	%rax, %rax
	jne	.L685
	movq	-48(%rbp), %rax
	movq	8(%rax), %rax
	movq	48(%rax), %rdx
	movq	-48(%rbp), %rax
	movq	%rax, %rdi
	call	*%rdx
.L685:
	movq	-32(%rbp), %rcx
	movl	-36(%rbp), %edx
	movl	-20(%rbp), %eax
	movl	%eax, %esi
	movl	$.LC25, %edi
	call	__Pyx_AddTraceback
	movq	$0, -96(%rbp)
.L680:
	movq	-96(%rbp), %rax
	leave
	.cfi_def_cfa 7, 8
	ret
	.cfi_endproc
.LFE26:
	.size	__pyx_pf_8friedman_10allOrderings, .-__pyx_pf_8friedman_10allOrderings
	.section	.rodata
.LC26:
	.string	"allOrderingsWithZeroes"
	.data
	.align 32
	.type	__pyx_mdef_8friedman_13allOrderingsWithZeroes, @object
	.size	__pyx_mdef_8friedman_13allOrderingsWithZeroes, 32
__pyx_mdef_8friedman_13allOrderingsWithZeroes:
	.quad	.LC26
	.quad	__pyx_pw_8friedman_13allOrderingsWithZeroes
	.long	3
	.zero	4
	.quad	0
	.section	.rodata
	.align 8
.LC27:
	.string	"friedman.allOrderingsWithZeroes"
	.text
	.type	__pyx_pw_8friedman_13allOrderingsWithZeroes, @function
__pyx_pw_8friedman_13allOrderingsWithZeroes:
.LFB27:
	.cfi_startproc
	pushq	%rbp
	.cfi_def_cfa_offset 16
	.cfi_offset 6, -16
	movq	%rsp, %rbp
	.cfi_def_cfa_register 6
	subq	$112, %rsp
	movq	%rdi, -88(%rbp)
	movq	%rsi, -96(%rbp)
	movq	%rdx, -104(%rbp)
	movq	$0, -64(%rbp)
	movq	$0, -56(%rbp)
	movl	$0, -44(%rbp)
	movq	$0, -40(%rbp)
	movl	$0, -28(%rbp)
	movq	$0, -24(%rbp)
	movq	$0, -80(%rbp)
	movq	$0, -72(%rbp)
	cmpq	$0, -104(%rbp)
	setne	%al
	movzbl	%al, %eax
	testq	%rax, %rax
	je	.L688
	movq	-96(%rbp), %rax
	movq	16(%rax), %rax
	movq	%rax, -8(%rbp)
	movq	-8(%rbp), %rax
	cmpq	$1, %rax
	je	.L691
	cmpq	$2, %rax
	je	.L692
	testq	%rax, %rax
	je	.L706
	jmp	.L694
.L692:
	movq	-96(%rbp), %rax
	movq	32(%rax), %rax
	movq	%rax, -72(%rbp)
.L691:
	movq	-96(%rbp), %rax
	movq	24(%rax), %rax
	movq	%rax, -80(%rbp)
	jmp	.L693
.L706:
	nop
.L693:
	movq	-104(%rbp), %rax
	movq	%rax, %rdi
	call	PyDict_Size
	movq	%rax, -16(%rbp)
	movq	-8(%rbp), %rax
	testq	%rax, %rax
	je	.L696
	cmpq	$1, %rax
	je	.L697
	jmp	.L695
.L696:
	movq	__pyx_n_s_elementsRemaining(%rip), %rdx
	movq	-104(%rbp), %rax
	movq	%rdx, %rsi
	movq	%rax, %rdi
	call	PyDict_GetItem
	movq	%rax, -80(%rbp)
	movq	-80(%rbp), %rax
	testq	%rax, %rax
	setne	%al
	movzbl	%al, %eax
	testq	%rax, %rax
	je	.L707
	subq	$1, -16(%rbp)
.L697:
	movq	__pyx_n_s_onesVersusNegOnesBalance(%rip), %rdx
	movq	-104(%rbp), %rax
	movq	%rdx, %rsi
	movq	%rax, %rdi
	call	PyDict_GetItem
	movq	%rax, -72(%rbp)
	movq	-72(%rbp), %rax
	testq	%rax, %rax
	setne	%al
	movzbl	%al, %eax
	testq	%rax, %rax
	je	.L699
	subq	$1, -16(%rbp)
	jmp	.L695
.L699:
	movl	$1, %r8d
	movl	$2, %ecx
	movl	$2, %edx
	movl	$1, %esi
	movl	$.LC26, %edi
	call	__Pyx_RaiseArgtupleInvalid
	movq	__pyx_f(%rip), %rax
	movq	%rax, -40(%rbp)
	movl	$108, -44(%rbp)
	movl	$3544, -28(%rbp)
	jmp	.L700
.L695:
	cmpq	$0, -16(%rbp)
	setg	%al
	movzbl	%al, %eax
	testq	%rax, %rax
	je	.L701
	movq	-8(%rbp), %rcx
	leaq	-80(%rbp), %rdx
	movq	-104(%rbp), %rax
	movl	$.LC26, %r9d
	movq	%rcx, %r8
	movq	%rdx, %rcx
	movl	$0, %edx
	movl	$__pyx_pyargnames.13490, %esi
	movq	%rax, %rdi
	call	__Pyx_ParseOptionalKeywords
	cltq
	shrq	$63, %rax
	testq	%rax, %rax
	je	.L701
	movq	__pyx_f(%rip), %rax
	movq	%rax, -40(%rbp)
	movl	$108, -44(%rbp)
	movl	$3548, -28(%rbp)
	jmp	.L700
.L688:
	movq	-96(%rbp), %rax
	movq	16(%rax), %rax
	cmpq	$2, %rax
	jne	.L708
.L702:
	movq	-96(%rbp), %rax
	movq	24(%rax), %rax
	movq	%rax, -80(%rbp)
	movq	-96(%rbp), %rax
	movq	32(%rax), %rax
	movq	%rax, -72(%rbp)
.L701:
	movq	-80(%rbp), %rax
	movq	%rax, -64(%rbp)
	movq	-72(%rbp), %rax
	movq	%rax, -56(%rbp)
	nop
.L703:
	movq	-56(%rbp), %rdx
	movq	-64(%rbp), %rcx
	movq	-88(%rbp), %rax
	movq	%rcx, %rsi
	movq	%rax, %rdi
	call	__pyx_pf_8friedman_12allOrderingsWithZeroes
	movq	%rax, -24(%rbp)
	movq	-24(%rbp), %rax
	jmp	.L704
.L707:
	nop
	jmp	.L694
.L708:
	nop
.L694:
	movq	-96(%rbp), %rax
	movq	16(%rax), %rax
	movq	%rax, %r8
	movl	$2, %ecx
	movl	$2, %edx
	movl	$1, %esi
	movl	$.LC26, %edi
	call	__Pyx_RaiseArgtupleInvalid
	movq	__pyx_f(%rip), %rax
	movq	%rax, -40(%rbp)
	movl	$108, -44(%rbp)
	movl	$3561, -28(%rbp)
.L700:
	movq	-40(%rbp), %rcx
	movl	-44(%rbp), %edx
	movl	-28(%rbp), %eax
	movl	%eax, %esi
	movl	$.LC27, %edi
	call	__Pyx_AddTraceback
	movl	$0, %eax
.L704:
	leave
	.cfi_def_cfa 7, 8
	ret
	.cfi_endproc
.LFE27:
	.size	__pyx_pw_8friedman_13allOrderingsWithZeroes, .-__pyx_pw_8friedman_13allOrderingsWithZeroes
	.type	__pyx_pf_8friedman_12allOrderingsWithZeroes, @function
__pyx_pf_8friedman_12allOrderingsWithZeroes:
.LFB28:
	.cfi_startproc
	pushq	%rbp
	.cfi_def_cfa_offset 16
	.cfi_offset 6, -16
	movq	%rsp, %rbp
	.cfi_def_cfa_register 6
	subq	$304, %rsp
	movq	%rdi, -280(%rbp)
	movq	%rsi, -288(%rbp)
	movq	%rdx, -296(%rbp)
	movq	$0, -264(%rbp)
	movq	$0, -256(%rbp)
	movq	$0, -248(%rbp)
	movq	$0, -240(%rbp)
	movq	$0, -232(%rbp)
	movq	$0, -224(%rbp)
	movq	$0, -216(%rbp)
	movq	$0, -200(%rbp)
	movq	$0, -192(%rbp)
	movq	$0, -184(%rbp)
	movq	$0, -168(%rbp)
	movq	$0, -144(%rbp)
	movl	$0, -132(%rbp)
	movq	$0, -128(%rbp)
	movl	$0, -116(%rbp)
	movl	Py_OptimizeFlag(%rip), %eax
	testl	%eax, %eax
	sete	%al
	movzbl	%al, %eax
	testq	%rax, %rax
	je	.L710
	movq	-296(%rbp), %rcx
	movq	-288(%rbp), %rax
	movl	$5, %edx
	movq	%rcx, %rsi
	movq	%rax, %rdi
	call	PyObject_RichCompare
	movq	%rax, -216(%rbp)
	cmpq	$0, -216(%rbp)
	sete	%al
	movzbl	%al, %eax
	testq	%rax, %rax
	je	.L711
	movq	__pyx_f(%rip), %rax
	movq	%rax, -128(%rbp)
	movl	$110, -132(%rbp)
	movl	$3606, -116(%rbp)
	jmp	.L712
.L711:
	movq	-216(%rbp), %rax
	movq	%rax, %rdi
	call	__Pyx_PyObject_IsTrue
	movl	%eax, -204(%rbp)
	movl	-204(%rbp), %eax
	cltq
	shrq	$63, %rax
	testq	%rax, %rax
	je	.L713
	movq	__pyx_f(%rip), %rax
	movq	%rax, -128(%rbp)
	movl	$110, -132(%rbp)
	movl	$3607, -116(%rbp)
	jmp	.L712
.L713:
	movq	-216(%rbp), %rax
	movq	(%rax), %rax
	leaq	-1(%rax), %rdx
	movq	-216(%rbp), %rax
	movq	%rdx, (%rax)
	movq	-216(%rbp), %rax
	movq	(%rax), %rax
	testq	%rax, %rax
	jne	.L714
	movq	-216(%rbp), %rax
	movq	8(%rax), %rax
	movq	48(%rax), %rdx
	movq	-216(%rbp), %rax
	movq	%rax, %rdi
	call	*%rdx
.L714:
	movq	$0, -216(%rbp)
	cmpl	$0, -204(%rbp)
	sete	%al
	movzbl	%al, %eax
	testq	%rax, %rax
	je	.L710
	movq	PyExc_AssertionError(%rip), %rax
	movq	%rax, %rdi
	call	PyErr_SetNone
	movq	__pyx_f(%rip), %rax
	movq	%rax, -128(%rbp)
	movl	$110, -132(%rbp)
	movl	$3611, -116(%rbp)
	jmp	.L712
.L710:
	movl	Py_OptimizeFlag(%rip), %eax
	testl	%eax, %eax
	sete	%al
	movzbl	%al, %eax
	testq	%rax, %rax
	je	.L715
	movq	-296(%rbp), %rax
	movq	%rax, %rdi
	call	PyNumber_Negative
	movq	%rax, -216(%rbp)
	cmpq	$0, -216(%rbp)
	sete	%al
	movzbl	%al, %eax
	testq	%rax, %rax
	je	.L716
	movq	__pyx_f(%rip), %rax
	movq	%rax, -128(%rbp)
	movl	$111, -132(%rbp)
	movl	$3625, -116(%rbp)
	jmp	.L712
.L716:
	movq	-216(%rbp), %rcx
	movq	-288(%rbp), %rax
	movl	$5, %edx
	movq	%rcx, %rsi
	movq	%rax, %rdi
	call	PyObject_RichCompare
	movq	%rax, -200(%rbp)
	cmpq	$0, -200(%rbp)
	sete	%al
	movzbl	%al, %eax
	testq	%rax, %rax
	je	.L717
	movq	__pyx_f(%rip), %rax
	movq	%rax, -128(%rbp)
	movl	$111, -132(%rbp)
	movl	$3627, -116(%rbp)
	jmp	.L712
.L717:
	movq	-216(%rbp), %rax
	movq	(%rax), %rax
	leaq	-1(%rax), %rdx
	movq	-216(%rbp), %rax
	movq	%rdx, (%rax)
	movq	-216(%rbp), %rax
	movq	(%rax), %rax
	testq	%rax, %rax
	jne	.L718
	movq	-216(%rbp), %rax
	movq	8(%rax), %rax
	movq	48(%rax), %rdx
	movq	-216(%rbp), %rax
	movq	%rax, %rdi
	call	*%rdx
.L718:
	movq	$0, -216(%rbp)
	movq	-200(%rbp), %rax
	movq	%rax, %rdi
	call	__Pyx_PyObject_IsTrue
	movl	%eax, -204(%rbp)
	movl	-204(%rbp), %eax
	cltq
	shrq	$63, %rax
	testq	%rax, %rax
	je	.L719
	movq	__pyx_f(%rip), %rax
	movq	%rax, -128(%rbp)
	movl	$111, -132(%rbp)
	movl	$3629, -116(%rbp)
	jmp	.L712
.L719:
	movq	-200(%rbp), %rax
	movq	(%rax), %rax
	leaq	-1(%rax), %rdx
	movq	-200(%rbp), %rax
	movq	%rdx, (%rax)
	movq	-200(%rbp), %rax
	movq	(%rax), %rax
	testq	%rax, %rax
	jne	.L720
	movq	-200(%rbp), %rax
	movq	8(%rax), %rax
	movq	48(%rax), %rdx
	movq	-200(%rbp), %rax
	movq	%rax, %rdi
	call	*%rdx
.L720:
	movq	$0, -200(%rbp)
	cmpl	$0, -204(%rbp)
	sete	%al
	movzbl	%al, %eax
	testq	%rax, %rax
	je	.L715
	movq	PyExc_AssertionError(%rip), %rax
	movq	%rax, %rdi
	call	PyErr_SetNone
	movq	__pyx_f(%rip), %rax
	movq	%rax, -128(%rbp)
	movl	$111, -132(%rbp)
	movl	$3633, -116(%rbp)
	jmp	.L712
.L715:
	movq	-296(%rbp), %rcx
	movq	-288(%rbp), %rax
	movl	$2, %edx
	movq	%rcx, %rsi
	movq	%rax, %rdi
	call	PyObject_RichCompare
	movq	%rax, -200(%rbp)
	cmpq	$0, -200(%rbp)
	sete	%al
	movzbl	%al, %eax
	testq	%rax, %rax
	je	.L721
	movq	__pyx_f(%rip), %rax
	movq	%rax, -128(%rbp)
	movl	$113, -132(%rbp)
	movl	$3645, -116(%rbp)
	jmp	.L712
.L721:
	movq	-200(%rbp), %rax
	movq	%rax, %rdi
	call	__Pyx_PyObject_IsTrue
	movl	%eax, -204(%rbp)
	movl	-204(%rbp), %eax
	cltq
	shrq	$63, %rax
	testq	%rax, %rax
	je	.L722
	movq	__pyx_f(%rip), %rax
	movq	%rax, -128(%rbp)
	movl	$113, -132(%rbp)
	movl	$3646, -116(%rbp)
	jmp	.L712
.L722:
	movq	-200(%rbp), %rax
	movq	(%rax), %rax
	leaq	-1(%rax), %rdx
	movq	-200(%rbp), %rax
	movq	%rdx, (%rax)
	movq	-200(%rbp), %rax
	movq	(%rax), %rax
	testq	%rax, %rax
	jne	.L723
	movq	-200(%rbp), %rax
	movq	8(%rax), %rax
	movq	48(%rax), %rdx
	movq	-200(%rbp), %rax
	movq	%rax, %rdi
	call	*%rdx
.L723:
	movq	$0, -200(%rbp)
	cmpl	$0, -204(%rbp)
	je	.L724
	cmpq	$0, -224(%rbp)
	je	.L725
	movq	-224(%rbp), %rax
	movq	(%rax), %rax
	leaq	-1(%rax), %rdx
	movq	-224(%rbp), %rax
	movq	%rdx, (%rax)
	movq	-224(%rbp), %rax
	movq	(%rax), %rax
	testq	%rax, %rax
	jne	.L725
	movq	-224(%rbp), %rax
	movq	8(%rax), %rax
	movq	48(%rax), %rdx
	movq	-224(%rbp), %rax
	movq	%rax, %rdi
	call	*%rdx
.L725:
	movl	$1, %edi
	call	PyList_New
	movq	%rax, -200(%rbp)
	cmpq	$0, -200(%rbp)
	sete	%al
	movzbl	%al, %eax
	testq	%rax, %rax
	je	.L726
	movq	__pyx_f(%rip), %rax
	movq	%rax, -128(%rbp)
	movl	$114, -132(%rbp)
	movl	$3658, -116(%rbp)
	jmp	.L712
.L726:
	movq	__pyx_int_neg_1(%rip), %rax
	movq	(%rax), %rdx
	addq	$1, %rdx
	movq	%rdx, (%rax)
	movq	-200(%rbp), %rax
	movq	24(%rax), %rax
	movq	__pyx_int_neg_1(%rip), %rdx
	movq	%rdx, (%rax)
	movq	-296(%rbp), %rdx
	movq	-200(%rbp), %rax
	movq	%rdx, %rsi
	movq	%rax, %rdi
	call	PyNumber_InPlaceMultiply
	movq	%rax, -112(%rbp)
	cmpq	$0, -112(%rbp)
	sete	%al
	movzbl	%al, %eax
	testq	%rax, %rax
	je	.L727
	movq	__pyx_f(%rip), %rax
	movq	%rax, -128(%rbp)
	movl	$114, -132(%rbp)
	movl	$3663, -116(%rbp)
	jmp	.L712
.L727:
	movq	-200(%rbp), %rax
	movq	(%rax), %rax
	leaq	-1(%rax), %rdx
	movq	-200(%rbp), %rax
	movq	%rdx, (%rax)
	movq	-200(%rbp), %rax
	movq	(%rax), %rax
	testq	%rax, %rax
	jne	.L728
	movq	-200(%rbp), %rax
	movq	8(%rax), %rax
	movq	48(%rax), %rdx
	movq	-200(%rbp), %rax
	movq	%rax, %rdi
	call	*%rdx
.L728:
	movq	-112(%rbp), %rax
	movq	%rax, -200(%rbp)
	movl	$1, %edi
	call	PyList_New
	movq	%rax, -216(%rbp)
	cmpq	$0, -216(%rbp)
	sete	%al
	movzbl	%al, %eax
	testq	%rax, %rax
	je	.L729
	movq	__pyx_f(%rip), %rax
	movq	%rax, -128(%rbp)
	movl	$114, -132(%rbp)
	movl	$3668, -116(%rbp)
	jmp	.L712
.L729:
	movq	-216(%rbp), %rax
	movq	24(%rax), %rax
	movq	-200(%rbp), %rdx
	movq	%rdx, (%rax)
	movq	$0, -200(%rbp)
	movq	-216(%rbp), %rax
	movq	%rax, -224(%rbp)
	movq	$0, -216(%rbp)
	jmp	.L730
.L724:
	movq	-296(%rbp), %rax
	movq	%rax, %rdi
	call	PyNumber_Negative
	movq	%rax, -216(%rbp)
	cmpq	$0, -216(%rbp)
	sete	%al
	movzbl	%al, %eax
	testq	%rax, %rax
	je	.L731
	movq	__pyx_f(%rip), %rax
	movq	%rax, -128(%rbp)
	movl	$115, -132(%rbp)
	movl	$3685, -116(%rbp)
	jmp	.L712
.L731:
	movq	-216(%rbp), %rcx
	movq	-288(%rbp), %rax
	movl	$2, %edx
	movq	%rcx, %rsi
	movq	%rax, %rdi
	call	PyObject_RichCompare
	movq	%rax, -200(%rbp)
	cmpq	$0, -200(%rbp)
	sete	%al
	movzbl	%al, %eax
	testq	%rax, %rax
	je	.L732
	movq	__pyx_f(%rip), %rax
	movq	%rax, -128(%rbp)
	movl	$115, -132(%rbp)
	movl	$3687, -116(%rbp)
	jmp	.L712
.L732:
	movq	-216(%rbp), %rax
	movq	(%rax), %rax
	leaq	-1(%rax), %rdx
	movq	-216(%rbp), %rax
	movq	%rdx, (%rax)
	movq	-216(%rbp), %rax
	movq	(%rax), %rax
	testq	%rax, %rax
	jne	.L733
	movq	-216(%rbp), %rax
	movq	8(%rax), %rax
	movq	48(%rax), %rdx
	movq	-216(%rbp), %rax
	movq	%rax, %rdi
	call	*%rdx
.L733:
	movq	$0, -216(%rbp)
	movq	-200(%rbp), %rax
	movq	%rax, %rdi
	call	__Pyx_PyObject_IsTrue
	movl	%eax, -204(%rbp)
	movl	-204(%rbp), %eax
	cltq
	shrq	$63, %rax
	testq	%rax, %rax
	je	.L734
	movq	__pyx_f(%rip), %rax
	movq	%rax, -128(%rbp)
	movl	$115, -132(%rbp)
	movl	$3689, -116(%rbp)
	jmp	.L712
.L734:
	movq	-200(%rbp), %rax
	movq	(%rax), %rax
	leaq	-1(%rax), %rdx
	movq	-200(%rbp), %rax
	movq	%rdx, (%rax)
	movq	-200(%rbp), %rax
	movq	(%rax), %rax
	testq	%rax, %rax
	jne	.L735
	movq	-200(%rbp), %rax
	movq	8(%rax), %rax
	movq	48(%rax), %rdx
	movq	-200(%rbp), %rax
	movq	%rax, %rdi
	call	*%rdx
.L735:
	movq	$0, -200(%rbp)
	cmpl	$0, -204(%rbp)
	je	.L736
	cmpq	$0, -224(%rbp)
	je	.L737
	movq	-224(%rbp), %rax
	movq	(%rax), %rax
	leaq	-1(%rax), %rdx
	movq	-224(%rbp), %rax
	movq	%rdx, (%rax)
	movq	-224(%rbp), %rax
	movq	(%rax), %rax
	testq	%rax, %rax
	jne	.L737
	movq	-224(%rbp), %rax
	movq	8(%rax), %rax
	movq	48(%rax), %rdx
	movq	-224(%rbp), %rax
	movq	%rax, %rdi
	call	*%rdx
.L737:
	movq	-296(%rbp), %rax
	movq	%rax, %rdi
	call	PyNumber_Negative
	movq	%rax, -200(%rbp)
	cmpq	$0, -200(%rbp)
	sete	%al
	movzbl	%al, %eax
	testq	%rax, %rax
	je	.L738
	movq	__pyx_f(%rip), %rax
	movq	%rax, -128(%rbp)
	movl	$116, -132(%rbp)
	movl	$3701, -116(%rbp)
	jmp	.L712
.L738:
	movl	$1, %edi
	call	PyList_New
	movq	%rax, -216(%rbp)
	cmpq	$0, -216(%rbp)
	sete	%al
	movzbl	%al, %eax
	testq	%rax, %rax
	je	.L739
	movq	__pyx_f(%rip), %rax
	movq	%rax, -128(%rbp)
	movl	$116, -132(%rbp)
	movl	$3703, -116(%rbp)
	jmp	.L712
.L739:
	movq	__pyx_int_1(%rip), %rax
	movq	(%rax), %rdx
	addq	$1, %rdx
	movq	%rdx, (%rax)
	movq	-216(%rbp), %rax
	movq	24(%rax), %rax
	movq	__pyx_int_1(%rip), %rdx
	movq	%rdx, (%rax)
	movq	-200(%rbp), %rdx
	movq	-216(%rbp), %rax
	movq	%rdx, %rsi
	movq	%rax, %rdi
	call	PyNumber_InPlaceMultiply
	movq	%rax, -104(%rbp)
	cmpq	$0, -104(%rbp)
	sete	%al
	movzbl	%al, %eax
	testq	%rax, %rax
	je	.L740
	movq	__pyx_f(%rip), %rax
	movq	%rax, -128(%rbp)
	movl	$116, -132(%rbp)
	movl	$3708, -116(%rbp)
	jmp	.L712
.L740:
	movq	-216(%rbp), %rax
	movq	(%rax), %rax
	leaq	-1(%rax), %rdx
	movq	-216(%rbp), %rax
	movq	%rdx, (%rax)
	movq	-216(%rbp), %rax
	movq	(%rax), %rax
	testq	%rax, %rax
	jne	.L741
	movq	-216(%rbp), %rax
	movq	8(%rax), %rax
	movq	48(%rax), %rdx
	movq	-216(%rbp), %rax
	movq	%rax, %rdi
	call	*%rdx
.L741:
	movq	-104(%rbp), %rax
	movq	%rax, -216(%rbp)
	movq	-200(%rbp), %rax
	movq	(%rax), %rax
	leaq	-1(%rax), %rdx
	movq	-200(%rbp), %rax
	movq	%rdx, (%rax)
	movq	-200(%rbp), %rax
	movq	(%rax), %rax
	testq	%rax, %rax
	jne	.L742
	movq	-200(%rbp), %rax
	movq	8(%rax), %rax
	movq	48(%rax), %rdx
	movq	-200(%rbp), %rax
	movq	%rax, %rdi
	call	*%rdx
.L742:
	movq	$0, -200(%rbp)
	movl	$1, %edi
	call	PyList_New
	movq	%rax, -200(%rbp)
	cmpq	$0, -200(%rbp)
	sete	%al
	movzbl	%al, %eax
	testq	%rax, %rax
	je	.L743
	movq	__pyx_f(%rip), %rax
	movq	%rax, -128(%rbp)
	movl	$116, -132(%rbp)
	movl	$3714, -116(%rbp)
	jmp	.L712
.L743:
	movq	-200(%rbp), %rax
	movq	24(%rax), %rax
	movq	-216(%rbp), %rdx
	movq	%rdx, (%rax)
	movq	$0, -216(%rbp)
	movq	-200(%rbp), %rax
	movq	%rax, -224(%rbp)
	movq	$0, -200(%rbp)
	jmp	.L730
.L736:
	movl	$0, %edi
	call	PyList_New
	movq	%rax, -200(%rbp)
	cmpq	$0, -200(%rbp)
	sete	%al
	movzbl	%al, %eax
	testq	%rax, %rax
	je	.L744
	movq	__pyx_f(%rip), %rax
	movq	%rax, -128(%rbp)
	movl	$121, -132(%rbp)
	movl	$3731, -116(%rbp)
	jmp	.L712
.L744:
	movq	-200(%rbp), %rax
	movq	%rax, -264(%rbp)
	movq	$0, -200(%rbp)
	movq	__pyx_n_s_allOrderingsWithZeroes(%rip), %rax
	movq	%rax, %rdi
	call	__Pyx_GetModuleGlobalName
	movq	%rax, -216(%rbp)
	cmpq	$0, -216(%rbp)
	sete	%al
	movzbl	%al, %eax
	testq	%rax, %rax
	je	.L745
	movq	__pyx_f(%rip), %rax
	movq	%rax, -128(%rbp)
	movl	$123, -132(%rbp)
	movl	$3743, -116(%rbp)
	jmp	.L712
.L745:
	movq	__pyx_int_2(%rip), %rdx
	movq	-288(%rbp), %rax
	movq	%rdx, %rsi
	movq	%rax, %rdi
	call	PyNumber_Subtract
	movq	%rax, -192(%rbp)
	cmpq	$0, -192(%rbp)
	sete	%al
	movzbl	%al, %eax
	testq	%rax, %rax
	je	.L746
	movq	__pyx_f(%rip), %rax
	movq	%rax, -128(%rbp)
	movl	$123, -132(%rbp)
	movl	$3745, -116(%rbp)
	jmp	.L712
.L746:
	movq	$0, -184(%rbp)
	movq	$0, -176(%rbp)
	movq	-216(%rbp), %rax
	movq	8(%rax), %rax
	cmpq	$PyMethod_Type, %rax
	sete	%al
	movzbl	%al, %eax
	testq	%rax, %rax
	je	.L747
	movq	-216(%rbp), %rax
	movq	24(%rax), %rax
	movq	%rax, -184(%rbp)
	cmpq	$0, -184(%rbp)
	setne	%al
	movzbl	%al, %eax
	testq	%rax, %rax
	je	.L747
	movq	-216(%rbp), %rax
	movq	16(%rax), %rax
	movq	%rax, -96(%rbp)
	movq	-184(%rbp), %rax
	movq	(%rax), %rax
	leaq	1(%rax), %rdx
	movq	-184(%rbp), %rax
	movq	%rdx, (%rax)
	movq	-96(%rbp), %rax
	movq	(%rax), %rax
	leaq	1(%rax), %rdx
	movq	-96(%rbp), %rax
	movq	%rdx, (%rax)
	movq	-216(%rbp), %rax
	movq	%rax, -88(%rbp)
	movq	-96(%rbp), %rax
	movq	%rax, -216(%rbp)
	movq	-88(%rbp), %rax
	movq	(%rax), %rax
	leaq	-1(%rax), %rdx
	movq	-88(%rbp), %rax
	movq	%rdx, (%rax)
	movq	-88(%rbp), %rax
	movq	(%rax), %rax
	testq	%rax, %rax
	jne	.L748
	movq	-88(%rbp), %rax
	movq	8(%rax), %rax
	movq	48(%rax), %rdx
	movq	-88(%rbp), %rax
	movq	%rax, %rdi
	call	*%rdx
.L748:
	movq	$1, -176(%rbp)
.L747:
	movq	-176(%rbp), %rax
	addq	$2, %rax
	movq	%rax, %rdi
	call	PyTuple_New
	movq	%rax, -168(%rbp)
	cmpq	$0, -168(%rbp)
	sete	%al
	movzbl	%al, %eax
	testq	%rax, %rax
	je	.L749
	movq	__pyx_f(%rip), %rax
	movq	%rax, -128(%rbp)
	movl	$123, -132(%rbp)
	movl	$3759, -116(%rbp)
	jmp	.L712
.L749:
	cmpq	$0, -184(%rbp)
	je	.L750
	movq	-168(%rbp), %rax
	movq	-184(%rbp), %rdx
	movq	%rdx, 24(%rax)
	movq	$0, -184(%rbp)
.L750:
	movq	-168(%rbp), %rax
	movq	-176(%rbp), %rdx
	leaq	2(%rdx), %rcx
	movq	-192(%rbp), %rdx
	movq	%rdx, 8(%rax,%rcx,8)
	movq	-296(%rbp), %rax
	movq	(%rax), %rax
	leaq	1(%rax), %rdx
	movq	-296(%rbp), %rax
	movq	%rdx, (%rax)
	movq	-168(%rbp), %rax
	movq	-176(%rbp), %rdx
	addq	$1, %rdx
	leaq	2(%rdx), %rcx
	movq	-296(%rbp), %rdx
	movq	%rdx, 8(%rax,%rcx,8)
	movq	$0, -192(%rbp)
	movq	-168(%rbp), %rcx
	movq	-216(%rbp), %rax
	movl	$0, %edx
	movq	%rcx, %rsi
	movq	%rax, %rdi
	call	__Pyx_PyObject_Call
	movq	%rax, -200(%rbp)
	cmpq	$0, -200(%rbp)
	sete	%al
	movzbl	%al, %eax
	testq	%rax, %rax
	je	.L751
	movq	__pyx_f(%rip), %rax
	movq	%rax, -128(%rbp)
	movl	$123, -132(%rbp)
	movl	$3770, -116(%rbp)
	jmp	.L712
.L751:
	movq	-168(%rbp), %rax
	movq	(%rax), %rax
	leaq	-1(%rax), %rdx
	movq	-168(%rbp), %rax
	movq	%rdx, (%rax)
	movq	-168(%rbp), %rax
	movq	(%rax), %rax
	testq	%rax, %rax
	jne	.L752
	movq	-168(%rbp), %rax
	movq	8(%rax), %rax
	movq	48(%rax), %rdx
	movq	-168(%rbp), %rax
	movq	%rax, %rdi
	call	*%rdx
.L752:
	movq	$0, -168(%rbp)
	movq	-216(%rbp), %rax
	movq	(%rax), %rax
	leaq	-1(%rax), %rdx
	movq	-216(%rbp), %rax
	movq	%rdx, (%rax)
	movq	-216(%rbp), %rax
	movq	(%rax), %rax
	testq	%rax, %rax
	jne	.L753
	movq	-216(%rbp), %rax
	movq	8(%rax), %rax
	movq	48(%rax), %rdx
	movq	-216(%rbp), %rax
	movq	%rax, %rdi
	call	*%rdx
.L753:
	movq	$0, -216(%rbp)
	movq	-200(%rbp), %rax
	movq	%rax, -256(%rbp)
	movq	$0, -200(%rbp)
	movq	-256(%rbp), %rax
	movq	8(%rax), %rax
	cmpq	$PyList_Type, %rax
	sete	%al
	movzbl	%al, %eax
	testq	%rax, %rax
	jne	.L754
	movq	-256(%rbp), %rax
	movq	8(%rax), %rax
	cmpq	$PyTuple_Type, %rax
	jne	.L755
.L754:
	movq	-256(%rbp), %rax
	movq	%rax, -200(%rbp)
	movq	-200(%rbp), %rax
	movq	(%rax), %rax
	leaq	1(%rax), %rdx
	movq	-200(%rbp), %rax
	movq	%rdx, (%rax)
	movq	$0, -176(%rbp)
	movq	$0, -160(%rbp)
	jmp	.L756
.L755:
	movq	$-1, -176(%rbp)
	movq	-256(%rbp), %rax
	movq	%rax, %rdi
	call	PyObject_GetIter
	movq	%rax, -200(%rbp)
	cmpq	$0, -200(%rbp)
	sete	%al
	movzbl	%al, %eax
	testq	%rax, %rax
	je	.L757
	movq	__pyx_f(%rip), %rax
	movq	%rax, -128(%rbp)
	movl	$124, -132(%rbp)
	movl	$3788, -116(%rbp)
	jmp	.L712
.L757:
	movq	-200(%rbp), %rax
	movq	8(%rax), %rax
	movq	224(%rax), %rax
	movq	%rax, -160(%rbp)
	cmpq	$0, -160(%rbp)
	sete	%al
	movzbl	%al, %eax
	testq	%rax, %rax
	je	.L756
	movq	__pyx_f(%rip), %rax
	movq	%rax, -128(%rbp)
	movl	$124, -132(%rbp)
	movl	$3790, -116(%rbp)
	jmp	.L712
.L756:
	cmpq	$0, -160(%rbp)
	sete	%al
	movzbl	%al, %eax
	testq	%rax, %rax
	je	.L758
	movq	-200(%rbp), %rax
	movq	8(%rax), %rax
	cmpq	$PyList_Type, %rax
	sete	%al
	movzbl	%al, %eax
	testq	%rax, %rax
	je	.L759
	movq	-200(%rbp), %rax
	movq	16(%rax), %rax
	cmpq	-176(%rbp), %rax
	jle	.L850
.L760:
	movq	-200(%rbp), %rax
	movq	24(%rax), %rax
	movq	-176(%rbp), %rdx
	salq	$3, %rdx
	addq	%rdx, %rax
	movq	(%rax), %rax
	movq	%rax, -216(%rbp)
	movq	-216(%rbp), %rax
	movq	(%rax), %rax
	leaq	1(%rax), %rdx
	movq	-216(%rbp), %rax
	movq	%rdx, (%rax)
	addq	$1, -176(%rbp)
	jmp	.L764
.L759:
	movq	-200(%rbp), %rax
	movq	16(%rax), %rax
	cmpq	-176(%rbp), %rax
	jle	.L851
.L763:
	movq	-200(%rbp), %rax
	movq	-176(%rbp), %rdx
	addq	$2, %rdx
	movq	8(%rax,%rdx,8), %rax
	movq	%rax, -216(%rbp)
	movq	-216(%rbp), %rax
	movq	(%rax), %rax
	leaq	1(%rax), %rdx
	movq	-216(%rbp), %rax
	movq	%rdx, (%rax)
	addq	$1, -176(%rbp)
	jmp	.L764
.L758:
	movq	-200(%rbp), %rax
	movq	-160(%rbp), %rdx
	movq	%rax, %rdi
	call	*%rdx
	movq	%rax, -216(%rbp)
	cmpq	$0, -216(%rbp)
	sete	%al
	movzbl	%al, %eax
	testq	%rax, %rax
	je	.L764
	call	PyErr_Occurred
	movq	%rax, -80(%rbp)
	cmpq	$0, -80(%rbp)
	je	.L852
	movq	PyExc_StopIteration(%rip), %rax
	cmpq	%rax, -80(%rbp)
	sete	%al
	movzbl	%al, %eax
	testq	%rax, %rax
	jne	.L766
	movq	PyExc_StopIteration(%rip), %rdx
	movq	-80(%rbp), %rax
	movq	%rdx, %rsi
	movq	%rax, %rdi
	call	PyErr_GivenExceptionMatches
	testl	%eax, %eax
	setne	%al
	movzbl	%al, %eax
	testq	%rax, %rax
	je	.L767
.L766:
	call	PyErr_Clear
	nop
	jmp	.L761
.L767:
	movq	__pyx_f(%rip), %rax
	movq	%rax, -128(%rbp)
	movl	$124, -132(%rbp)
	movl	$3815, -116(%rbp)
	jmp	.L712
.L764:
	movq	-248(%rbp), %rax
	movq	%rax, -72(%rbp)
	movq	-216(%rbp), %rax
	movq	%rax, -248(%rbp)
	cmpq	$0, -72(%rbp)
	je	.L768
	movq	-72(%rbp), %rax
	movq	(%rax), %rax
	leaq	-1(%rax), %rdx
	movq	-72(%rbp), %rax
	movq	%rdx, (%rax)
	movq	-72(%rbp), %rax
	movq	(%rax), %rax
	testq	%rax, %rax
	jne	.L768
	movq	-72(%rbp), %rax
	movq	8(%rax), %rax
	movq	48(%rax), %rdx
	movq	-72(%rbp), %rax
	movq	%rax, %rdi
	call	*%rdx
.L768:
	movq	$0, -216(%rbp)
	movl	$1, %edi
	call	PyList_New
	movq	%rax, -216(%rbp)
	cmpq	$0, -216(%rbp)
	sete	%al
	movzbl	%al, %eax
	testq	%rax, %rax
	je	.L769
	movq	__pyx_f(%rip), %rax
	movq	%rax, -128(%rbp)
	movl	$125, -132(%rbp)
	movl	$3831, -116(%rbp)
	jmp	.L712
.L769:
	movq	__pyx_int_0(%rip), %rax
	movq	(%rax), %rdx
	addq	$1, %rdx
	movq	%rdx, (%rax)
	movq	-216(%rbp), %rax
	movq	24(%rax), %rax
	movq	__pyx_int_0(%rip), %rdx
	movq	%rdx, (%rax)
	movq	-248(%rbp), %rdx
	movq	-216(%rbp), %rax
	movq	%rdx, %rsi
	movq	%rax, %rdi
	call	PyNumber_Add
	movq	%rax, -168(%rbp)
	cmpq	$0, -168(%rbp)
	sete	%al
	movzbl	%al, %eax
	testq	%rax, %rax
	je	.L770
	movq	__pyx_f(%rip), %rax
	movq	%rax, -128(%rbp)
	movl	$125, -132(%rbp)
	movl	$3836, -116(%rbp)
	jmp	.L712
.L770:
	movq	-216(%rbp), %rax
	movq	(%rax), %rax
	leaq	-1(%rax), %rdx
	movq	-216(%rbp), %rax
	movq	%rdx, (%rax)
	movq	-216(%rbp), %rax
	movq	(%rax), %rax
	testq	%rax, %rax
	jne	.L771
	movq	-216(%rbp), %rax
	movq	8(%rax), %rax
	movq	48(%rax), %rdx
	movq	-216(%rbp), %rax
	movq	%rax, %rdi
	call	*%rdx
.L771:
	movq	$0, -216(%rbp)
	movq	-168(%rbp), %rdx
	movq	-264(%rbp), %rax
	movq	%rdx, %rsi
	movq	%rax, %rdi
	call	__Pyx_PyList_Append
	movl	%eax, -148(%rbp)
	cmpl	$-1, -148(%rbp)
	sete	%al
	movzbl	%al, %eax
	testq	%rax, %rax
	je	.L772
	movq	__pyx_f(%rip), %rax
	movq	%rax, -128(%rbp)
	movl	$125, -132(%rbp)
	movl	$3839, -116(%rbp)
	jmp	.L712
.L772:
	movq	-168(%rbp), %rax
	movq	(%rax), %rax
	leaq	-1(%rax), %rdx
	movq	-168(%rbp), %rax
	movq	%rdx, (%rax)
	movq	-168(%rbp), %rax
	movq	(%rax), %rax
	testq	%rax, %rax
	jne	.L773
	movq	-168(%rbp), %rax
	movq	8(%rax), %rax
	movq	48(%rax), %rdx
	movq	-168(%rbp), %rax
	movq	%rax, %rdi
	call	*%rdx
.L773:
	movq	$0, -168(%rbp)
	jmp	.L756
.L850:
	nop
	jmp	.L761
.L851:
	nop
	jmp	.L761
.L852:
	nop
.L761:
	movq	-200(%rbp), %rax
	movq	(%rax), %rax
	leaq	-1(%rax), %rdx
	movq	-200(%rbp), %rax
	movq	%rdx, (%rax)
	movq	-200(%rbp), %rax
	movq	(%rax), %rax
	testq	%rax, %rax
	jne	.L774
	movq	-200(%rbp), %rax
	movq	8(%rax), %rax
	movq	48(%rax), %rdx
	movq	-200(%rbp), %rax
	movq	%rax, %rdi
	call	*%rdx
.L774:
	movq	$0, -200(%rbp)
	movq	__pyx_n_s_allOrderingsWithZeroes(%rip), %rax
	movq	%rax, %rdi
	call	__Pyx_GetModuleGlobalName
	movq	%rax, -168(%rbp)
	cmpq	$0, -168(%rbp)
	sete	%al
	movzbl	%al, %eax
	testq	%rax, %rax
	je	.L775
	movq	__pyx_f(%rip), %rax
	movq	%rax, -128(%rbp)
	movl	$127, -132(%rbp)
	movl	$3859, -116(%rbp)
	jmp	.L712
.L775:
	movq	__pyx_int_1(%rip), %rdx
	movq	-288(%rbp), %rax
	movq	%rdx, %rsi
	movq	%rax, %rdi
	call	PyNumber_Subtract
	movq	%rax, -216(%rbp)
	cmpq	$0, -216(%rbp)
	sete	%al
	movzbl	%al, %eax
	testq	%rax, %rax
	je	.L776
	movq	__pyx_f(%rip), %rax
	movq	%rax, -128(%rbp)
	movl	$127, -132(%rbp)
	movl	$3861, -116(%rbp)
	jmp	.L712
.L776:
	movq	__pyx_int_1(%rip), %rdx
	movq	-296(%rbp), %rax
	movq	%rdx, %rsi
	movq	%rax, %rdi
	call	PyNumber_Add
	movq	%rax, -192(%rbp)
	cmpq	$0, -192(%rbp)
	sete	%al
	movzbl	%al, %eax
	testq	%rax, %rax
	je	.L777
	movq	__pyx_f(%rip), %rax
	movq	%rax, -128(%rbp)
	movl	$127, -132(%rbp)
	movl	$3863, -116(%rbp)
	jmp	.L712
.L777:
	movq	$0, -184(%rbp)
	movq	$0, -176(%rbp)
	movq	-168(%rbp), %rax
	movq	8(%rax), %rax
	cmpq	$PyMethod_Type, %rax
	sete	%al
	movzbl	%al, %eax
	testq	%rax, %rax
	je	.L778
	movq	-168(%rbp), %rax
	movq	24(%rax), %rax
	movq	%rax, -184(%rbp)
	cmpq	$0, -184(%rbp)
	setne	%al
	movzbl	%al, %eax
	testq	%rax, %rax
	je	.L778
	movq	-168(%rbp), %rax
	movq	16(%rax), %rax
	movq	%rax, -64(%rbp)
	movq	-184(%rbp), %rax
	movq	(%rax), %rax
	leaq	1(%rax), %rdx
	movq	-184(%rbp), %rax
	movq	%rdx, (%rax)
	movq	-64(%rbp), %rax
	movq	(%rax), %rax
	leaq	1(%rax), %rdx
	movq	-64(%rbp), %rax
	movq	%rdx, (%rax)
	movq	-168(%rbp), %rax
	movq	%rax, -56(%rbp)
	movq	-64(%rbp), %rax
	movq	%rax, -168(%rbp)
	movq	-56(%rbp), %rax
	movq	(%rax), %rax
	leaq	-1(%rax), %rdx
	movq	-56(%rbp), %rax
	movq	%rdx, (%rax)
	movq	-56(%rbp), %rax
	movq	(%rax), %rax
	testq	%rax, %rax
	jne	.L779
	movq	-56(%rbp), %rax
	movq	8(%rax), %rax
	movq	48(%rax), %rdx
	movq	-56(%rbp), %rax
	movq	%rax, %rdi
	call	*%rdx
.L779:
	movq	$1, -176(%rbp)
.L778:
	movq	-176(%rbp), %rax
	addq	$2, %rax
	movq	%rax, %rdi
	call	PyTuple_New
	movq	%rax, -144(%rbp)
	cmpq	$0, -144(%rbp)
	sete	%al
	movzbl	%al, %eax
	testq	%rax, %rax
	je	.L780
	movq	__pyx_f(%rip), %rax
	movq	%rax, -128(%rbp)
	movl	$127, -132(%rbp)
	movl	$3877, -116(%rbp)
	jmp	.L712
.L780:
	cmpq	$0, -184(%rbp)
	je	.L781
	movq	-144(%rbp), %rax
	movq	-184(%rbp), %rdx
	movq	%rdx, 24(%rax)
	movq	$0, -184(%rbp)
.L781:
	movq	-144(%rbp), %rax
	movq	-176(%rbp), %rdx
	leaq	2(%rdx), %rcx
	movq	-216(%rbp), %rdx
	movq	%rdx, 8(%rax,%rcx,8)
	movq	-144(%rbp), %rax
	movq	-176(%rbp), %rdx
	addq	$1, %rdx
	leaq	2(%rdx), %rcx
	movq	-192(%rbp), %rdx
	movq	%rdx, 8(%rax,%rcx,8)
	movq	$0, -216(%rbp)
	movq	$0, -192(%rbp)
	movq	-144(%rbp), %rcx
	movq	-168(%rbp), %rax
	movl	$0, %edx
	movq	%rcx, %rsi
	movq	%rax, %rdi
	call	__Pyx_PyObject_Call
	movq	%rax, -200(%rbp)
	cmpq	$0, -200(%rbp)
	sete	%al
	movzbl	%al, %eax
	testq	%rax, %rax
	je	.L782
	movq	__pyx_f(%rip), %rax
	movq	%rax, -128(%rbp)
	movl	$127, -132(%rbp)
	movl	$3888, -116(%rbp)
	jmp	.L712
.L782:
	movq	-144(%rbp), %rax
	movq	(%rax), %rax
	leaq	-1(%rax), %rdx
	movq	-144(%rbp), %rax
	movq	%rdx, (%rax)
	movq	-144(%rbp), %rax
	movq	(%rax), %rax
	testq	%rax, %rax
	jne	.L783
	movq	-144(%rbp), %rax
	movq	8(%rax), %rax
	movq	48(%rax), %rdx
	movq	-144(%rbp), %rax
	movq	%rax, %rdi
	call	*%rdx
.L783:
	movq	$0, -144(%rbp)
	movq	-168(%rbp), %rax
	movq	(%rax), %rax
	leaq	-1(%rax), %rdx
	movq	-168(%rbp), %rax
	movq	%rdx, (%rax)
	movq	-168(%rbp), %rax
	movq	(%rax), %rax
	testq	%rax, %rax
	jne	.L784
	movq	-168(%rbp), %rax
	movq	8(%rax), %rax
	movq	48(%rax), %rdx
	movq	-168(%rbp), %rax
	movq	%rax, %rdi
	call	*%rdx
.L784:
	movq	$0, -168(%rbp)
	movq	-200(%rbp), %rax
	movq	%rax, -240(%rbp)
	movq	$0, -200(%rbp)
	movq	-240(%rbp), %rax
	movq	8(%rax), %rax
	cmpq	$PyList_Type, %rax
	sete	%al
	movzbl	%al, %eax
	testq	%rax, %rax
	jne	.L785
	movq	-240(%rbp), %rax
	movq	8(%rax), %rax
	cmpq	$PyTuple_Type, %rax
	jne	.L786
.L785:
	movq	-240(%rbp), %rax
	movq	%rax, -200(%rbp)
	movq	-200(%rbp), %rax
	movq	(%rax), %rax
	leaq	1(%rax), %rdx
	movq	-200(%rbp), %rax
	movq	%rdx, (%rax)
	movq	$0, -176(%rbp)
	movq	$0, -160(%rbp)
	jmp	.L787
.L786:
	movq	$-1, -176(%rbp)
	movq	-240(%rbp), %rax
	movq	%rax, %rdi
	call	PyObject_GetIter
	movq	%rax, -200(%rbp)
	cmpq	$0, -200(%rbp)
	sete	%al
	movzbl	%al, %eax
	testq	%rax, %rax
	je	.L788
	movq	__pyx_f(%rip), %rax
	movq	%rax, -128(%rbp)
	movl	$128, -132(%rbp)
	movl	$3906, -116(%rbp)
	jmp	.L712
.L788:
	movq	-200(%rbp), %rax
	movq	8(%rax), %rax
	movq	224(%rax), %rax
	movq	%rax, -160(%rbp)
	cmpq	$0, -160(%rbp)
	sete	%al
	movzbl	%al, %eax
	testq	%rax, %rax
	je	.L787
	movq	__pyx_f(%rip), %rax
	movq	%rax, -128(%rbp)
	movl	$128, -132(%rbp)
	movl	$3908, -116(%rbp)
	jmp	.L712
.L787:
	cmpq	$0, -160(%rbp)
	sete	%al
	movzbl	%al, %eax
	testq	%rax, %rax
	je	.L789
	movq	-200(%rbp), %rax
	movq	8(%rax), %rax
	cmpq	$PyList_Type, %rax
	sete	%al
	movzbl	%al, %eax
	testq	%rax, %rax
	je	.L790
	movq	-200(%rbp), %rax
	movq	16(%rax), %rax
	cmpq	-176(%rbp), %rax
	jle	.L853
.L791:
	movq	-200(%rbp), %rax
	movq	24(%rax), %rax
	movq	-176(%rbp), %rdx
	salq	$3, %rdx
	addq	%rdx, %rax
	movq	(%rax), %rax
	movq	%rax, -168(%rbp)
	movq	-168(%rbp), %rax
	movq	(%rax), %rax
	leaq	1(%rax), %rdx
	movq	-168(%rbp), %rax
	movq	%rdx, (%rax)
	addq	$1, -176(%rbp)
	jmp	.L795
.L790:
	movq	-200(%rbp), %rax
	movq	16(%rax), %rax
	cmpq	-176(%rbp), %rax
	jle	.L854
.L794:
	movq	-200(%rbp), %rax
	movq	-176(%rbp), %rdx
	addq	$2, %rdx
	movq	8(%rax,%rdx,8), %rax
	movq	%rax, -168(%rbp)
	movq	-168(%rbp), %rax
	movq	(%rax), %rax
	leaq	1(%rax), %rdx
	movq	-168(%rbp), %rax
	movq	%rdx, (%rax)
	addq	$1, -176(%rbp)
	jmp	.L795
.L789:
	movq	-200(%rbp), %rax
	movq	-160(%rbp), %rdx
	movq	%rax, %rdi
	call	*%rdx
	movq	%rax, -168(%rbp)
	cmpq	$0, -168(%rbp)
	sete	%al
	movzbl	%al, %eax
	testq	%rax, %rax
	je	.L795
	call	PyErr_Occurred
	movq	%rax, -48(%rbp)
	cmpq	$0, -48(%rbp)
	je	.L855
	movq	PyExc_StopIteration(%rip), %rax
	cmpq	%rax, -48(%rbp)
	sete	%al
	movzbl	%al, %eax
	testq	%rax, %rax
	jne	.L797
	movq	PyExc_StopIteration(%rip), %rdx
	movq	-48(%rbp), %rax
	movq	%rdx, %rsi
	movq	%rax, %rdi
	call	PyErr_GivenExceptionMatches
	testl	%eax, %eax
	setne	%al
	movzbl	%al, %eax
	testq	%rax, %rax
	je	.L798
.L797:
	call	PyErr_Clear
	nop
	jmp	.L792
.L798:
	movq	__pyx_f(%rip), %rax
	movq	%rax, -128(%rbp)
	movl	$128, -132(%rbp)
	movl	$3933, -116(%rbp)
	jmp	.L712
.L795:
	movq	-248(%rbp), %rax
	movq	%rax, -40(%rbp)
	movq	-168(%rbp), %rax
	movq	%rax, -248(%rbp)
	cmpq	$0, -40(%rbp)
	je	.L799
	movq	-40(%rbp), %rax
	movq	(%rax), %rax
	leaq	-1(%rax), %rdx
	movq	-40(%rbp), %rax
	movq	%rdx, (%rax)
	movq	-40(%rbp), %rax
	movq	(%rax), %rax
	testq	%rax, %rax
	jne	.L799
	movq	-40(%rbp), %rax
	movq	8(%rax), %rax
	movq	48(%rax), %rdx
	movq	-40(%rbp), %rax
	movq	%rax, %rdi
	call	*%rdx
.L799:
	movq	$0, -168(%rbp)
	movl	$1, %edi
	call	PyList_New
	movq	%rax, -168(%rbp)
	cmpq	$0, -168(%rbp)
	sete	%al
	movzbl	%al, %eax
	testq	%rax, %rax
	je	.L800
	movq	__pyx_f(%rip), %rax
	movq	%rax, -128(%rbp)
	movl	$129, -132(%rbp)
	movl	$3949, -116(%rbp)
	jmp	.L712
.L800:
	movq	__pyx_int_1(%rip), %rax
	movq	(%rax), %rdx
	addq	$1, %rdx
	movq	%rdx, (%rax)
	movq	-168(%rbp), %rax
	movq	24(%rax), %rax
	movq	__pyx_int_1(%rip), %rdx
	movq	%rdx, (%rax)
	movq	-248(%rbp), %rdx
	movq	-168(%rbp), %rax
	movq	%rdx, %rsi
	movq	%rax, %rdi
	call	PyNumber_Add
	movq	%rax, -144(%rbp)
	cmpq	$0, -144(%rbp)
	sete	%al
	movzbl	%al, %eax
	testq	%rax, %rax
	je	.L801
	movq	__pyx_f(%rip), %rax
	movq	%rax, -128(%rbp)
	movl	$129, -132(%rbp)
	movl	$3954, -116(%rbp)
	jmp	.L712
.L801:
	movq	-168(%rbp), %rax
	movq	(%rax), %rax
	leaq	-1(%rax), %rdx
	movq	-168(%rbp), %rax
	movq	%rdx, (%rax)
	movq	-168(%rbp), %rax
	movq	(%rax), %rax
	testq	%rax, %rax
	jne	.L802
	movq	-168(%rbp), %rax
	movq	8(%rax), %rax
	movq	48(%rax), %rdx
	movq	-168(%rbp), %rax
	movq	%rax, %rdi
	call	*%rdx
.L802:
	movq	$0, -168(%rbp)
	movq	-144(%rbp), %rdx
	movq	-264(%rbp), %rax
	movq	%rdx, %rsi
	movq	%rax, %rdi
	call	__Pyx_PyList_Append
	movl	%eax, -148(%rbp)
	cmpl	$-1, -148(%rbp)
	sete	%al
	movzbl	%al, %eax
	testq	%rax, %rax
	je	.L803
	movq	__pyx_f(%rip), %rax
	movq	%rax, -128(%rbp)
	movl	$129, -132(%rbp)
	movl	$3957, -116(%rbp)
	jmp	.L712
.L803:
	movq	-144(%rbp), %rax
	movq	(%rax), %rax
	leaq	-1(%rax), %rdx
	movq	-144(%rbp), %rax
	movq	%rdx, (%rax)
	movq	-144(%rbp), %rax
	movq	(%rax), %rax
	testq	%rax, %rax
	jne	.L804
	movq	-144(%rbp), %rax
	movq	8(%rax), %rax
	movq	48(%rax), %rdx
	movq	-144(%rbp), %rax
	movq	%rax, %rdi
	call	*%rdx
.L804:
	movq	$0, -144(%rbp)
	jmp	.L787
.L853:
	nop
	jmp	.L792
.L854:
	nop
	jmp	.L792
.L855:
	nop
.L792:
	movq	-200(%rbp), %rax
	movq	(%rax), %rax
	leaq	-1(%rax), %rdx
	movq	-200(%rbp), %rax
	movq	%rdx, (%rax)
	movq	-200(%rbp), %rax
	movq	(%rax), %rax
	testq	%rax, %rax
	jne	.L805
	movq	-200(%rbp), %rax
	movq	8(%rax), %rax
	movq	48(%rax), %rdx
	movq	-200(%rbp), %rax
	movq	%rax, %rdi
	call	*%rdx
.L805:
	movq	$0, -200(%rbp)
	movq	__pyx_n_s_allOrderingsWithZeroes(%rip), %rax
	movq	%rax, %rdi
	call	__Pyx_GetModuleGlobalName
	movq	%rax, -144(%rbp)
	cmpq	$0, -144(%rbp)
	sete	%al
	movzbl	%al, %eax
	testq	%rax, %rax
	je	.L806
	movq	__pyx_f(%rip), %rax
	movq	%rax, -128(%rbp)
	movl	$131, -132(%rbp)
	movl	$3977, -116(%rbp)
	jmp	.L712
.L806:
	movq	__pyx_int_1(%rip), %rdx
	movq	-288(%rbp), %rax
	movq	%rdx, %rsi
	movq	%rax, %rdi
	call	PyNumber_Subtract
	movq	%rax, -168(%rbp)
	cmpq	$0, -168(%rbp)
	sete	%al
	movzbl	%al, %eax
	testq	%rax, %rax
	je	.L807
	movq	__pyx_f(%rip), %rax
	movq	%rax, -128(%rbp)
	movl	$131, -132(%rbp)
	movl	$3979, -116(%rbp)
	jmp	.L712
.L807:
	movq	__pyx_int_1(%rip), %rdx
	movq	-296(%rbp), %rax
	movq	%rdx, %rsi
	movq	%rax, %rdi
	call	PyNumber_Subtract
	movq	%rax, -192(%rbp)
	cmpq	$0, -192(%rbp)
	sete	%al
	movzbl	%al, %eax
	testq	%rax, %rax
	je	.L808
	movq	__pyx_f(%rip), %rax
	movq	%rax, -128(%rbp)
	movl	$131, -132(%rbp)
	movl	$3981, -116(%rbp)
	jmp	.L712
.L808:
	movq	$0, -216(%rbp)
	movq	$0, -176(%rbp)
	movq	-144(%rbp), %rax
	movq	8(%rax), %rax
	cmpq	$PyMethod_Type, %rax
	sete	%al
	movzbl	%al, %eax
	testq	%rax, %rax
	je	.L809
	movq	-144(%rbp), %rax
	movq	24(%rax), %rax
	movq	%rax, -216(%rbp)
	cmpq	$0, -216(%rbp)
	setne	%al
	movzbl	%al, %eax
	testq	%rax, %rax
	je	.L809
	movq	-144(%rbp), %rax
	movq	16(%rax), %rax
	movq	%rax, -32(%rbp)
	movq	-216(%rbp), %rax
	movq	(%rax), %rax
	leaq	1(%rax), %rdx
	movq	-216(%rbp), %rax
	movq	%rdx, (%rax)
	movq	-32(%rbp), %rax
	movq	(%rax), %rax
	leaq	1(%rax), %rdx
	movq	-32(%rbp), %rax
	movq	%rdx, (%rax)
	movq	-144(%rbp), %rax
	movq	%rax, -24(%rbp)
	movq	-32(%rbp), %rax
	movq	%rax, -144(%rbp)
	movq	-24(%rbp), %rax
	movq	(%rax), %rax
	leaq	-1(%rax), %rdx
	movq	-24(%rbp), %rax
	movq	%rdx, (%rax)
	movq	-24(%rbp), %rax
	movq	(%rax), %rax
	testq	%rax, %rax
	jne	.L810
	movq	-24(%rbp), %rax
	movq	8(%rax), %rax
	movq	48(%rax), %rdx
	movq	-24(%rbp), %rax
	movq	%rax, %rdi
	call	*%rdx
.L810:
	movq	$1, -176(%rbp)
.L809:
	movq	-176(%rbp), %rax
	addq	$2, %rax
	movq	%rax, %rdi
	call	PyTuple_New
	movq	%rax, -184(%rbp)
	cmpq	$0, -184(%rbp)
	sete	%al
	movzbl	%al, %eax
	testq	%rax, %rax
	je	.L811
	movq	__pyx_f(%rip), %rax
	movq	%rax, -128(%rbp)
	movl	$131, -132(%rbp)
	movl	$3995, -116(%rbp)
	jmp	.L712
.L811:
	cmpq	$0, -216(%rbp)
	je	.L812
	movq	-184(%rbp), %rax
	movq	-216(%rbp), %rdx
	movq	%rdx, 24(%rax)
	movq	$0, -216(%rbp)
.L812:
	movq	-184(%rbp), %rax
	movq	-176(%rbp), %rdx
	leaq	2(%rdx), %rcx
	movq	-168(%rbp), %rdx
	movq	%rdx, 8(%rax,%rcx,8)
	movq	-184(%rbp), %rax
	movq	-176(%rbp), %rdx
	addq	$1, %rdx
	leaq	2(%rdx), %rcx
	movq	-192(%rbp), %rdx
	movq	%rdx, 8(%rax,%rcx,8)
	movq	$0, -168(%rbp)
	movq	$0, -192(%rbp)
	movq	-184(%rbp), %rcx
	movq	-144(%rbp), %rax
	movl	$0, %edx
	movq	%rcx, %rsi
	movq	%rax, %rdi
	call	__Pyx_PyObject_Call
	movq	%rax, -200(%rbp)
	cmpq	$0, -200(%rbp)
	sete	%al
	movzbl	%al, %eax
	testq	%rax, %rax
	je	.L813
	movq	__pyx_f(%rip), %rax
	movq	%rax, -128(%rbp)
	movl	$131, -132(%rbp)
	movl	$4006, -116(%rbp)
	jmp	.L712
.L813:
	movq	-184(%rbp), %rax
	movq	(%rax), %rax
	leaq	-1(%rax), %rdx
	movq	-184(%rbp), %rax
	movq	%rdx, (%rax)
	movq	-184(%rbp), %rax
	movq	(%rax), %rax
	testq	%rax, %rax
	jne	.L814
	movq	-184(%rbp), %rax
	movq	8(%rax), %rax
	movq	48(%rax), %rdx
	movq	-184(%rbp), %rax
	movq	%rax, %rdi
	call	*%rdx
.L814:
	movq	$0, -184(%rbp)
	movq	-144(%rbp), %rax
	movq	(%rax), %rax
	leaq	-1(%rax), %rdx
	movq	-144(%rbp), %rax
	movq	%rdx, (%rax)
	movq	-144(%rbp), %rax
	movq	(%rax), %rax
	testq	%rax, %rax
	jne	.L815
	movq	-144(%rbp), %rax
	movq	8(%rax), %rax
	movq	48(%rax), %rdx
	movq	-144(%rbp), %rax
	movq	%rax, %rdi
	call	*%rdx
.L815:
	movq	$0, -144(%rbp)
	movq	-200(%rbp), %rax
	movq	%rax, -232(%rbp)
	movq	$0, -200(%rbp)
	movq	-232(%rbp), %rax
	movq	8(%rax), %rax
	cmpq	$PyList_Type, %rax
	sete	%al
	movzbl	%al, %eax
	testq	%rax, %rax
	jne	.L816
	movq	-232(%rbp), %rax
	movq	8(%rax), %rax
	cmpq	$PyTuple_Type, %rax
	jne	.L817
.L816:
	movq	-232(%rbp), %rax
	movq	%rax, -200(%rbp)
	movq	-200(%rbp), %rax
	movq	(%rax), %rax
	leaq	1(%rax), %rdx
	movq	-200(%rbp), %rax
	movq	%rdx, (%rax)
	movq	$0, -176(%rbp)
	movq	$0, -160(%rbp)
	jmp	.L818
.L817:
	movq	$-1, -176(%rbp)
	movq	-232(%rbp), %rax
	movq	%rax, %rdi
	call	PyObject_GetIter
	movq	%rax, -200(%rbp)
	cmpq	$0, -200(%rbp)
	sete	%al
	movzbl	%al, %eax
	testq	%rax, %rax
	je	.L819
	movq	__pyx_f(%rip), %rax
	movq	%rax, -128(%rbp)
	movl	$132, -132(%rbp)
	movl	$4024, -116(%rbp)
	jmp	.L712
.L819:
	movq	-200(%rbp), %rax
	movq	8(%rax), %rax
	movq	224(%rax), %rax
	movq	%rax, -160(%rbp)
	cmpq	$0, -160(%rbp)
	sete	%al
	movzbl	%al, %eax
	testq	%rax, %rax
	je	.L818
	movq	__pyx_f(%rip), %rax
	movq	%rax, -128(%rbp)
	movl	$132, -132(%rbp)
	movl	$4026, -116(%rbp)
	jmp	.L712
.L818:
	cmpq	$0, -160(%rbp)
	sete	%al
	movzbl	%al, %eax
	testq	%rax, %rax
	je	.L820
	movq	-200(%rbp), %rax
	movq	8(%rax), %rax
	cmpq	$PyList_Type, %rax
	sete	%al
	movzbl	%al, %eax
	testq	%rax, %rax
	je	.L821
	movq	-200(%rbp), %rax
	movq	16(%rax), %rax
	cmpq	-176(%rbp), %rax
	jle	.L856
.L822:
	movq	-200(%rbp), %rax
	movq	24(%rax), %rax
	movq	-176(%rbp), %rdx
	salq	$3, %rdx
	addq	%rdx, %rax
	movq	(%rax), %rax
	movq	%rax, -144(%rbp)
	movq	-144(%rbp), %rax
	movq	(%rax), %rax
	leaq	1(%rax), %rdx
	movq	-144(%rbp), %rax
	movq	%rdx, (%rax)
	addq	$1, -176(%rbp)
	jmp	.L826
.L821:
	movq	-200(%rbp), %rax
	movq	16(%rax), %rax
	cmpq	-176(%rbp), %rax
	jle	.L857
.L825:
	movq	-200(%rbp), %rax
	movq	-176(%rbp), %rdx
	addq	$2, %rdx
	movq	8(%rax,%rdx,8), %rax
	movq	%rax, -144(%rbp)
	movq	-144(%rbp), %rax
	movq	(%rax), %rax
	leaq	1(%rax), %rdx
	movq	-144(%rbp), %rax
	movq	%rdx, (%rax)
	addq	$1, -176(%rbp)
	jmp	.L826
.L820:
	movq	-200(%rbp), %rax
	movq	-160(%rbp), %rdx
	movq	%rax, %rdi
	call	*%rdx
	movq	%rax, -144(%rbp)
	cmpq	$0, -144(%rbp)
	sete	%al
	movzbl	%al, %eax
	testq	%rax, %rax
	je	.L826
	call	PyErr_Occurred
	movq	%rax, -16(%rbp)
	cmpq	$0, -16(%rbp)
	je	.L858
	movq	PyExc_StopIteration(%rip), %rax
	cmpq	%rax, -16(%rbp)
	sete	%al
	movzbl	%al, %eax
	testq	%rax, %rax
	jne	.L828
	movq	PyExc_StopIteration(%rip), %rdx
	movq	-16(%rbp), %rax
	movq	%rdx, %rsi
	movq	%rax, %rdi
	call	PyErr_GivenExceptionMatches
	testl	%eax, %eax
	setne	%al
	movzbl	%al, %eax
	testq	%rax, %rax
	je	.L829
.L828:
	call	PyErr_Clear
	nop
	jmp	.L823
.L829:
	movq	__pyx_f(%rip), %rax
	movq	%rax, -128(%rbp)
	movl	$132, -132(%rbp)
	movl	$4051, -116(%rbp)
	jmp	.L712
.L826:
	movq	-248(%rbp), %rax
	movq	%rax, -8(%rbp)
	movq	-144(%rbp), %rax
	movq	%rax, -248(%rbp)
	cmpq	$0, -8(%rbp)
	je	.L830
	movq	-8(%rbp), %rax
	movq	(%rax), %rax
	leaq	-1(%rax), %rdx
	movq	-8(%rbp), %rax
	movq	%rdx, (%rax)
	movq	-8(%rbp), %rax
	movq	(%rax), %rax
	testq	%rax, %rax
	jne	.L830
	movq	-8(%rbp), %rax
	movq	8(%rax), %rax
	movq	48(%rax), %rdx
	movq	-8(%rbp), %rax
	movq	%rax, %rdi
	call	*%rdx
.L830:
	movq	$0, -144(%rbp)
	movl	$1, %edi
	call	PyList_New
	movq	%rax, -144(%rbp)
	cmpq	$0, -144(%rbp)
	sete	%al
	movzbl	%al, %eax
	testq	%rax, %rax
	je	.L831
	movq	__pyx_f(%rip), %rax
	movq	%rax, -128(%rbp)
	movl	$133, -132(%rbp)
	movl	$4067, -116(%rbp)
	jmp	.L712
.L831:
	movq	__pyx_int_neg_1(%rip), %rax
	movq	(%rax), %rdx
	addq	$1, %rdx
	movq	%rdx, (%rax)
	movq	-144(%rbp), %rax
	movq	24(%rax), %rax
	movq	__pyx_int_neg_1(%rip), %rdx
	movq	%rdx, (%rax)
	movq	-248(%rbp), %rdx
	movq	-144(%rbp), %rax
	movq	%rdx, %rsi
	movq	%rax, %rdi
	call	PyNumber_Add
	movq	%rax, -184(%rbp)
	cmpq	$0, -184(%rbp)
	sete	%al
	movzbl	%al, %eax
	testq	%rax, %rax
	je	.L832
	movq	__pyx_f(%rip), %rax
	movq	%rax, -128(%rbp)
	movl	$133, -132(%rbp)
	movl	$4072, -116(%rbp)
	jmp	.L712
.L832:
	movq	-144(%rbp), %rax
	movq	(%rax), %rax
	leaq	-1(%rax), %rdx
	movq	-144(%rbp), %rax
	movq	%rdx, (%rax)
	movq	-144(%rbp), %rax
	movq	(%rax), %rax
	testq	%rax, %rax
	jne	.L833
	movq	-144(%rbp), %rax
	movq	8(%rax), %rax
	movq	48(%rax), %rdx
	movq	-144(%rbp), %rax
	movq	%rax, %rdi
	call	*%rdx
.L833:
	movq	$0, -144(%rbp)
	movq	-184(%rbp), %rdx
	movq	-264(%rbp), %rax
	movq	%rdx, %rsi
	movq	%rax, %rdi
	call	__Pyx_PyList_Append
	movl	%eax, -148(%rbp)
	cmpl	$-1, -148(%rbp)
	sete	%al
	movzbl	%al, %eax
	testq	%rax, %rax
	je	.L834
	movq	__pyx_f(%rip), %rax
	movq	%rax, -128(%rbp)
	movl	$133, -132(%rbp)
	movl	$4075, -116(%rbp)
	jmp	.L712
.L834:
	movq	-184(%rbp), %rax
	movq	(%rax), %rax
	leaq	-1(%rax), %rdx
	movq	-184(%rbp), %rax
	movq	%rdx, (%rax)
	movq	-184(%rbp), %rax
	movq	(%rax), %rax
	testq	%rax, %rax
	jne	.L835
	movq	-184(%rbp), %rax
	movq	8(%rax), %rax
	movq	48(%rax), %rdx
	movq	-184(%rbp), %rax
	movq	%rax, %rdi
	call	*%rdx
.L835:
	movq	$0, -184(%rbp)
	jmp	.L818
.L856:
	nop
	jmp	.L823
.L857:
	nop
	jmp	.L823
.L858:
	nop
.L823:
	movq	-200(%rbp), %rax
	movq	(%rax), %rax
	leaq	-1(%rax), %rdx
	movq	-200(%rbp), %rax
	movq	%rdx, (%rax)
	movq	-200(%rbp), %rax
	movq	(%rax), %rax
	testq	%rax, %rax
	jne	.L836
	movq	-200(%rbp), %rax
	movq	8(%rax), %rax
	movq	48(%rax), %rdx
	movq	-200(%rbp), %rax
	movq	%rax, %rdi
	call	*%rdx
.L836:
	movq	$0, -200(%rbp)
	cmpq	$0, -224(%rbp)
	je	.L837
	movq	-224(%rbp), %rax
	movq	(%rax), %rax
	leaq	-1(%rax), %rdx
	movq	-224(%rbp), %rax
	movq	%rdx, (%rax)
	movq	-224(%rbp), %rax
	movq	(%rax), %rax
	testq	%rax, %rax
	jne	.L837
	movq	-224(%rbp), %rax
	movq	8(%rax), %rax
	movq	48(%rax), %rdx
	movq	-224(%rbp), %rax
	movq	%rax, %rdi
	call	*%rdx
.L837:
	movq	-264(%rbp), %rax
	movq	(%rax), %rax
	leaq	1(%rax), %rdx
	movq	-264(%rbp), %rax
	movq	%rdx, (%rax)
	movq	-264(%rbp), %rax
	movq	%rax, -224(%rbp)
	jmp	.L730
.L712:
	cmpq	$0, -216(%rbp)
	je	.L838
	movq	-216(%rbp), %rax
	movq	(%rax), %rax
	leaq	-1(%rax), %rdx
	movq	-216(%rbp), %rax
	movq	%rdx, (%rax)
	movq	-216(%rbp), %rax
	movq	(%rax), %rax
	testq	%rax, %rax
	jne	.L838
	movq	-216(%rbp), %rax
	movq	8(%rax), %rax
	movq	48(%rax), %rdx
	movq	-216(%rbp), %rax
	movq	%rax, %rdi
	call	*%rdx
.L838:
	cmpq	$0, -200(%rbp)
	je	.L839
	movq	-200(%rbp), %rax
	movq	(%rax), %rax
	leaq	-1(%rax), %rdx
	movq	-200(%rbp), %rax
	movq	%rdx, (%rax)
	movq	-200(%rbp), %rax
	movq	(%rax), %rax
	testq	%rax, %rax
	jne	.L839
	movq	-200(%rbp), %rax
	movq	8(%rax), %rax
	movq	48(%rax), %rdx
	movq	-200(%rbp), %rax
	movq	%rax, %rdi
	call	*%rdx
.L839:
	cmpq	$0, -192(%rbp)
	je	.L840
	movq	-192(%rbp), %rax
	movq	(%rax), %rax
	leaq	-1(%rax), %rdx
	movq	-192(%rbp), %rax
	movq	%rdx, (%rax)
	movq	-192(%rbp), %rax
	movq	(%rax), %rax
	testq	%rax, %rax
	jne	.L840
	movq	-192(%rbp), %rax
	movq	8(%rax), %rax
	movq	48(%rax), %rdx
	movq	-192(%rbp), %rax
	movq	%rax, %rdi
	call	*%rdx
.L840:
	cmpq	$0, -184(%rbp)
	je	.L841
	movq	-184(%rbp), %rax
	movq	(%rax), %rax
	leaq	-1(%rax), %rdx
	movq	-184(%rbp), %rax
	movq	%rdx, (%rax)
	movq	-184(%rbp), %rax
	movq	(%rax), %rax
	testq	%rax, %rax
	jne	.L841
	movq	-184(%rbp), %rax
	movq	8(%rax), %rax
	movq	48(%rax), %rdx
	movq	-184(%rbp), %rax
	movq	%rax, %rdi
	call	*%rdx
.L841:
	cmpq	$0, -168(%rbp)
	je	.L842
	movq	-168(%rbp), %rax
	movq	(%rax), %rax
	leaq	-1(%rax), %rdx
	movq	-168(%rbp), %rax
	movq	%rdx, (%rax)
	movq	-168(%rbp), %rax
	movq	(%rax), %rax
	testq	%rax, %rax
	jne	.L842
	movq	-168(%rbp), %rax
	movq	8(%rax), %rax
	movq	48(%rax), %rdx
	movq	-168(%rbp), %rax
	movq	%rax, %rdi
	call	*%rdx
.L842:
	cmpq	$0, -144(%rbp)
	je	.L843
	movq	-144(%rbp), %rax
	movq	(%rax), %rax
	leaq	-1(%rax), %rdx
	movq	-144(%rbp), %rax
	movq	%rdx, (%rax)
	movq	-144(%rbp), %rax
	movq	(%rax), %rax
	testq	%rax, %rax
	jne	.L843
	movq	-144(%rbp), %rax
	movq	8(%rax), %rax
	movq	48(%rax), %rdx
	movq	-144(%rbp), %rax
	movq	%rax, %rdi
	call	*%rdx
.L843:
	movq	-128(%rbp), %rcx
	movl	-132(%rbp), %edx
	movl	-116(%rbp), %eax
	movl	%eax, %esi
	movl	$.LC27, %edi
	call	__Pyx_AddTraceback
	movq	$0, -224(%rbp)
.L730:
	cmpq	$0, -264(%rbp)
	je	.L844
	movq	-264(%rbp), %rax
	movq	(%rax), %rax
	leaq	-1(%rax), %rdx
	movq	-264(%rbp), %rax
	movq	%rdx, (%rax)
	movq	-264(%rbp), %rax
	movq	(%rax), %rax
	testq	%rax, %rax
	jne	.L844
	movq	-264(%rbp), %rax
	movq	8(%rax), %rax
	movq	48(%rax), %rdx
	movq	-264(%rbp), %rax
	movq	%rax, %rdi
	call	*%rdx
.L844:
	cmpq	$0, -256(%rbp)
	je	.L845
	movq	-256(%rbp), %rax
	movq	(%rax), %rax
	leaq	-1(%rax), %rdx
	movq	-256(%rbp), %rax
	movq	%rdx, (%rax)
	movq	-256(%rbp), %rax
	movq	(%rax), %rax
	testq	%rax, %rax
	jne	.L845
	movq	-256(%rbp), %rax
	movq	8(%rax), %rax
	movq	48(%rax), %rdx
	movq	-256(%rbp), %rax
	movq	%rax, %rdi
	call	*%rdx
.L845:
	cmpq	$0, -248(%rbp)
	je	.L846
	movq	-248(%rbp), %rax
	movq	(%rax), %rax
	leaq	-1(%rax), %rdx
	movq	-248(%rbp), %rax
	movq	%rdx, (%rax)
	movq	-248(%rbp), %rax
	movq	(%rax), %rax
	testq	%rax, %rax
	jne	.L846
	movq	-248(%rbp), %rax
	movq	8(%rax), %rax
	movq	48(%rax), %rdx
	movq	-248(%rbp), %rax
	movq	%rax, %rdi
	call	*%rdx
.L846:
	cmpq	$0, -240(%rbp)
	je	.L847
	movq	-240(%rbp), %rax
	movq	(%rax), %rax
	leaq	-1(%rax), %rdx
	movq	-240(%rbp), %rax
	movq	%rdx, (%rax)
	movq	-240(%rbp), %rax
	movq	(%rax), %rax
	testq	%rax, %rax
	jne	.L847
	movq	-240(%rbp), %rax
	movq	8(%rax), %rax
	movq	48(%rax), %rdx
	movq	-240(%rbp), %rax
	movq	%rax, %rdi
	call	*%rdx
.L847:
	cmpq	$0, -232(%rbp)
	je	.L848
	movq	-232(%rbp), %rax
	movq	(%rax), %rax
	leaq	-1(%rax), %rdx
	movq	-232(%rbp), %rax
	movq	%rdx, (%rax)
	movq	-232(%rbp), %rax
	movq	(%rax), %rax
	testq	%rax, %rax
	jne	.L848
	movq	-232(%rbp), %rax
	movq	8(%rax), %rax
	movq	48(%rax), %rdx
	movq	-232(%rbp), %rax
	movq	%rax, %rdi
	call	*%rdx
.L848:
	movq	-224(%rbp), %rax
	leave
	.cfi_def_cfa 7, 8
	ret
	.cfi_endproc
.LFE28:
	.size	__pyx_pf_8friedman_12allOrderingsWithZeroes, .-__pyx_pf_8friedman_12allOrderingsWithZeroes
	.section	.rodata
.LC28:
	.string	"allOrderingsWithoutZeroes"
	.data
	.align 32
	.type	__pyx_mdef_8friedman_15allOrderingsWithoutZeroes, @object
	.size	__pyx_mdef_8friedman_15allOrderingsWithoutZeroes, 32
__pyx_mdef_8friedman_15allOrderingsWithoutZeroes:
	.quad	.LC28
	.quad	__pyx_pw_8friedman_15allOrderingsWithoutZeroes
	.long	8
	.zero	4
	.quad	0
	.text
	.type	__pyx_pw_8friedman_15allOrderingsWithoutZeroes, @function
__pyx_pw_8friedman_15allOrderingsWithoutZeroes:
.LFB29:
	.cfi_startproc
	pushq	%rbp
	.cfi_def_cfa_offset 16
	.cfi_offset 6, -16
	movq	%rsp, %rbp
	.cfi_def_cfa_register 6
	subq	$32, %rsp
	movq	%rdi, -24(%rbp)
	movq	%rsi, -32(%rbp)
	movq	$0, -8(%rbp)
	movq	-32(%rbp), %rdx
	movq	-24(%rbp), %rax
	movq	%rdx, %rsi
	movq	%rax, %rdi
	call	__pyx_pf_8friedman_14allOrderingsWithoutZeroes
	movq	%rax, -8(%rbp)
	movq	-8(%rbp), %rax
	leave
	.cfi_def_cfa 7, 8
	ret
	.cfi_endproc
.LFE29:
	.size	__pyx_pw_8friedman_15allOrderingsWithoutZeroes, .-__pyx_pw_8friedman_15allOrderingsWithoutZeroes
	.section	.rodata
	.align 8
.LC29:
	.string	"friedman.allOrderingsWithoutZeroes"
	.text
	.type	__pyx_pf_8friedman_14allOrderingsWithoutZeroes, @function
__pyx_pf_8friedman_14allOrderingsWithoutZeroes:
.LFB30:
	.cfi_startproc
	pushq	%rbp
	.cfi_def_cfa_offset 16
	.cfi_offset 6, -16
	movq	%rsp, %rbp
	.cfi_def_cfa_register 6
	subq	$112, %rsp
	movq	%rdi, -104(%rbp)
	movq	%rsi, -112(%rbp)
	movq	$0, -88(%rbp)
	movq	$0, -80(%rbp)
	movq	$0, -72(%rbp)
	movq	$0, -64(%rbp)
	movq	$0, -48(%rbp)
	movl	$0, -36(%rbp)
	movq	$0, -32(%rbp)
	movl	$0, -20(%rbp)
	cmpq	$0, -88(%rbp)
	je	.L862
	movq	-88(%rbp), %rax
	movq	(%rax), %rax
	leaq	-1(%rax), %rdx
	movq	-88(%rbp), %rax
	movq	%rdx, (%rax)
	movq	-88(%rbp), %rax
	movq	(%rax), %rax
	testq	%rax, %rax
	jne	.L862
	movq	-88(%rbp), %rax
	movq	8(%rax), %rax
	movq	48(%rax), %rdx
	movq	-88(%rbp), %rax
	movq	%rax, %rdi
	call	*%rdx
.L862:
	movq	__pyx_n_s_allOrderingsHelper(%rip), %rax
	movq	%rax, %rdi
	call	__Pyx_GetModuleGlobalName
	movq	%rax, -72(%rbp)
	cmpq	$0, -72(%rbp)
	sete	%al
	movzbl	%al, %eax
	testq	%rax, %rax
	je	.L863
	movq	__pyx_f(%rip), %rax
	movq	%rax, -32(%rbp)
	movl	$140, -36(%rbp)
	movl	$4172, -20(%rbp)
	jmp	.L864
.L863:
	movq	$0, -64(%rbp)
	movq	$0, -56(%rbp)
	movq	-72(%rbp), %rax
	movq	8(%rax), %rax
	cmpq	$PyMethod_Type, %rax
	sete	%al
	movzbl	%al, %eax
	testq	%rax, %rax
	je	.L865
	movq	-72(%rbp), %rax
	movq	24(%rax), %rax
